
SKB1_BIN.elf:     file format elf32-littleriscv
SKB1_BIN.elf
architecture: riscv:rv32, flags 0x00000112:
EXEC_P, HAS_SYMS, D_PAGED
start address 0x00005000

Program Header:
    LOAD off    0x00001000 vaddr 0x00005000 paddr 0x00005000 align 2**12
         filesz 0x00002a5c memsz 0x00002a5c flags r-x
    LOAD off    0x00004000 vaddr 0x20000000 paddr 0x00007a5c align 2**12
         filesz 0x000000a0 memsz 0x00000530 flags rw-
    LOAD off    0x00004800 vaddr 0x20007800 paddr 0x20007800 align 2**12
         filesz 0x00000000 memsz 0x00000800 flags rw-

Sections:
Idx Name          Size      VMA       LMA       File off  Algn
  0 .init         00000038  00005000  00005000  00001000  2**1
                  CONTENTS, ALLOC, LOAD, READONLY, CODE
  1 .vector       000001c8  00005038  00005038  00001038  2**1
                  CONTENTS, ALLOC, LOAD, READONLY, CODE
  2 .text         0000285c  00005200  00005200  00001200  2**2
                  CONTENTS, ALLOC, LOAD, READONLY, CODE
  3 .fini         00000000  00007a5c  00007a5c  000040a0  2**0
                  CONTENTS, ALLOC, LOAD, CODE
  4 .dalign       00000000  20000000  20000000  000040a0  2**0
                  CONTENTS
  5 .dlalign      00000000  00007a5c  00007a5c  000040a0  2**0
                  CONTENTS
  6 .data         000000a0  20000000  00007a5c  00004000  2**2
                  CONTENTS, ALLOC, LOAD, DATA
  7 .bss          00000490  200000a0  00007afc  000040a0  2**2
                  ALLOC
  8 .stack        00000800  20007800  20007800  00004800  2**0
                  ALLOC
  9 .debug_info   0000f3cd  00000000  00000000  000040a0  2**0
                  CONTENTS, READONLY, DEBUGGING
 10 .debug_abbrev 000025c6  00000000  00000000  0001346d  2**0
                  CONTENTS, READONLY, DEBUGGING
 11 .debug_aranges 00000860  00000000  00000000  00015a38  2**3
                  CONTENTS, READONLY, DEBUGGING
 12 .debug_ranges 00000868  00000000  00000000  00016298  2**3
                  CONTENTS, READONLY, DEBUGGING
 13 .debug_line   0000baa5  00000000  00000000  00016b00  2**0
                  CONTENTS, READONLY, DEBUGGING
 14 .debug_str    00003bbc  00000000  00000000  000225a5  2**0
                  CONTENTS, READONLY, DEBUGGING
 15 .comment      00000033  00000000  00000000  00026161  2**0
                  CONTENTS, READONLY
 16 .debug_frame  0000190c  00000000  00000000  00026194  2**2
                  CONTENTS, READONLY, DEBUGGING
 17 .debug_loc    00003da4  00000000  00000000  00027aa0  2**0
                  CONTENTS, READONLY, DEBUGGING
 18 .stab         00000084  00000000  00000000  0002b844  2**2
                  CONTENTS, READONLY, DEBUGGING
 19 .stabstr      00000117  00000000  00000000  0002b8c8  2**0
                  CONTENTS, READONLY, DEBUGGING
SYMBOL TABLE:
00005000 l    d  .init	00000000 .init
00005038 l    d  .vector	00000000 .vector
00005200 l    d  .text	00000000 .text
00007a5c l    d  .fini	00000000 .fini
20000000 l    d  .dalign	00000000 .dalign
00007a5c l    d  .dlalign	00000000 .dlalign
20000000 l    d  .data	00000000 .data
200000a0 l    d  .bss	00000000 .bss
20007800 l    d  .stack	00000000 .stack
00000000 l    d  .debug_info	00000000 .debug_info
00000000 l    d  .debug_abbrev	00000000 .debug_abbrev
00000000 l    d  .debug_aranges	00000000 .debug_aranges
00000000 l    d  .debug_ranges	00000000 .debug_ranges
00000000 l    d  .debug_line	00000000 .debug_line
00000000 l    d  .debug_str	00000000 .debug_str
00000000 l    d  .comment	00000000 .comment
00000000 l    d  .debug_frame	00000000 .debug_frame
00000000 l    d  .debug_loc	00000000 .debug_loc
00000000 l    d  .stab	00000000 .stab
00000000 l    d  .stabstr	00000000 .stabstr
00000000 l    df *ABS*	00000000 ./Startup/startup_ch32v30x_D8C.o
00005038 l       .vector	00000000 _vector_base
00000000 l    df *ABS*	00000000 ch32v30x_it.c
00000000 l    df *ABS*	00000000 ch32v30x_usbhs_device.c
00000000 l    df *ABS*	00000000 main.c
00000000 l    df *ABS*	00000000 system_ch32v30x.c
00000000 l    df *ABS*	00000000 usbd_compostie_km.c
200000ac l     O .bss	00000001 update_flag
200000ad l     O .bss	00000001 usb_flag
00000000 l    df *ABS*	00000000 ch32v30x_exti.c
00000000 l    df *ABS*	00000000 ch32v30x_gpio.c
00000000 l    df *ABS*	00000000 ch32v30x_misc.c
00000000 l    df *ABS*	00000000 ch32v30x_rcc.c
20000010 l     O .data	00000010 APBAHBPrescTable
2000008c l     O .data	00000004 ADCPrescTable
00000000 l    df *ABS*	00000000 ch32v30x_tim.c
00000000 l    df *ABS*	00000000 ch32v30x_usart.c
00000000 l    df *ABS*	00000000 debug.c
200000b4 l     O .bss	00000002 p_ms
200000b6 l     O .bss	00000001 p_us
20000090 l     O .data	00000004 curbrk.5218
00000000 l    df *ABS*	00000000 memcpy.c
00000000 l    df *ABS*	00000000 puts.c
00000000 l    df *ABS*	00000000 wbuf.c
00000000 l    df *ABS*	00000000 wsetup.c
00000000 l    df *ABS*	00000000 fflush.c
00000000 l    df *ABS*	00000000 findfp.c
0000716e l     F .text	0000006a std
00000000 l    df *ABS*	00000000 fwalk.c
00000000 l    df *ABS*	00000000 makebuf.c
00000000 l    df *ABS*	00000000 nano-mallocr.c
00000000 l    df *ABS*	00000000 nano-mallocr.c
00000000 l    df *ABS*	00000000 sbrkr.c
00000000 l    df *ABS*	00000000 stdio.c
00000000 l    df *ABS*	00000000 writer.c
00000000 l    df *ABS*	00000000 closer.c
00000000 l    df *ABS*	00000000 fstatr.c
00000000 l    df *ABS*	00000000 isattyr.c
00000000 l    df *ABS*	00000000 lseekr.c
00000000 l    df *ABS*	00000000 mlock.c
00000000 l    df *ABS*	00000000 readr.c
00000000 l    df *ABS*	00000000 close.c
00000000 l    df *ABS*	00000000 fstat.c
00000000 l    df *ABS*	00000000 isatty.c
00000000 l    df *ABS*	00000000 lseek.c
00000000 l    df *ABS*	00000000 read.c
00000000 l    df *ABS*	00000000 usbd_desc.c
00000000 l    df *ABS*	00000000 impure.c
20000020 l     O .data	00000060 impure_data
00000000 l    df *ABS*	00000000 reent.c
00006310  w      .text	00000000 EXTI2_IRQHandler
0000635a  w      .text	00000000 TIM8_TRG_COM_IRQHandler
0000635c  w      .text	00000000 TIM8_CC_IRQHandler
00007760 g     F .text	00000028 _isatty_r
000079e4 g     O .text	00000016 MySerNumInfo
00006d1e g     F .text	000000da _puts_r
00006222 g     F .text	00000020 USB_Sleep_Wakeup_CFG
200000c0 g     O .bss	00000200 USBHS_EP2_TX_Buf
00007788 g     F .text	0000002c _lseek_r
00006392  w      .text	00000000 UART8_IRQHandler
200002c0 g     O .bss	00000004 pUSBHS_Descr
200002c4 g     O .bss	00000002 USBHS_HidProtocol
20000880 g       .data	00000000 __global_pointer$
00006336  w      .text	00000000 TIM1_CC_IRQHandler
000076a4 g     F .text	00000036 __sseek
00007228 g     F .text	00000066 __sinit
00006e02 g     F .text	000000c0 __swbuf_r
000052ac g     F .text	00000002 HardFault_Handler
000071e2 g     F .text	00000046 __sfmoreglue
000077b6 g     F .text	00000002 __malloc_unlock
0000636c  w      .text	00000000 TIM6_IRQHandler
000062fc  w      .text	00000000 SysTick_Handler
000065ca g     F .text	000000b8 NVIC_Init
00006302  w      .text	00000000 PVD_IRQHandler
00006362  w      .text	00000000 SDIO_IRQHandler
00006394  w      .text	00000000 TIM9_BRK_IRQHandler
000063a8  w      .text	00000000 DMA2_Channel8_IRQHandler
000052a8 g     F .text	00000004 NMI_Handler
000068a8 g     F .text	00000024 RCC_USBHSPHYPLLALIVEcmd
00006382  w      .text	00000000 CAN2_RX1_IRQHandler
00006312  w      .text	00000000 EXTI3_IRQHandler
200002c8 g     O .bss	00000200 USBHS_EP1_TX_Buf
000054ce g     F .text	000006ee USBHS_IRQHandler
00006afc g     F .text	0000000c USART_GetFlagStatus
000063aa  w      .text	00000000 DMA2_Channel9_IRQHandler
00007736 g     F .text	0000002a _fstat_r
000063a2  w      .text	00000000 TIM10_CC_IRQHandler
2000052c g     O .bss	00000004 errno
200000a0 g       .bss	00000000 _sbss
00000800 g       *ABS*	00000000 __stack_size
00006b9e g     F .text	00000058 USART_Printf_Init
000068cc g     F .text	00000016 RCC_USBCLK48MConfig
200004c8 g     O .bss	00000040 USBHS_EP0_Buf
0000799c g     O .text	00000012 MyDevDescr
00006c68 g     F .text	000000b6 memcpy
000071d8 g     F .text	0000000a _cleanup_r
0000630c  w      .text	00000000 EXTI0_IRQHandler
00006342  w      .text	00000000 I2C2_EV_IRQHandler
000063a0  w      .text	00000000 TIM10_TRG_COM_IRQHandler
000069a2 g     F .text	0000001c TIM_Cmd
00006df8 g     F .text	0000000a puts
20000080 g     O .data	00000004 SystemCoreClock
20000508 g     O .bss	00000001 USBHS_DevConfig
000077f0 g     F .text	0000000c _fstat
00005038 g       .init	00000000 _einit
00006874 g     F .text	0000001a RCC_USBHSPLLCLKConfig
000069f0 g     F .text	0000000e TIM_ClearITPendingBit
20000509 g     O .bss	00000001 USBHS_SetupReqType
0000681e g     F .text	0000001e RCC_APB2PeriphClockCmd
00006384  w      .text	00000000 CAN2_SCE_IRQHandler
00006324  w      .text	00000000 ADC1_2_IRQHandler
000064c0 g     F .text	000000c2 GPIO_Init
0000620c g     F .text	00000016 KB_Schedule
000062fa  w      .text	00000000 Break_Point_Handler
200000b0 g     O .bss	00000004 NVIC_Priority_Group
00006346  w      .text	00000000 SPI1_IRQHandler
00006ad6 g     F .text	0000001c USART_Cmd
000075fc g     F .text	0000002a _sbrk_r
00005fcc g     F .text	0000005a DB_Algo
00006304  w      .text	00000000 TAMPER_IRQHandler
0000612e g     F .text	00000032 LED_Init
00006594 g     F .text	00000004 GPIO_Write
20000098 g     O .data	00000004 MyLangDescr
000077b8 g     F .text	0000002c _read_r
00006380  w      .text	00000000 CAN2_RX0_IRQHandler
000078d8 g     O .text	00000035 KeyRepDesc
00006358  w      .text	00000000 TIM8_UP_IRQHandler
0000683c g     F .text	0000001e RCC_APB1PeriphClockCmd
000062f6  w      .text	00000000 Ecall_M_Mode_Handler
00007960 g     O .text	0000003b MyCfgDescr
20007800 g       .stack	00000000 _heap_end
000077fc g     F .text	0000000c _isatty
200000a0 g     O .bss	00000002 KB_Data_Pack
00006b32 g     F .text	00000036 Delay_Us
2000009c g     O .data	00000004 _global_impure_ptr
00006372  w      .text	00000000 DMA2_Channel2_IRQHandler
00006800 g     F .text	0000001e RCC_AHBPeriphClockCmd
0000631c  w      .text	00000000 DMA1_Channel4_IRQHandler
00006c42 g     F .text	00000026 _sbrk
000079b0 g     O .text	00000012 MyManuInfo
2000050a g     O .bss	00000002 USBHS_SetupReqValue
2000050c g     O .bss	00000002 USBHS_SetupReqIndex
2000050e g     O .bss	00000001 USBHS_DevAddr
00006396  w      .text	00000000 TIM9_UP_IRQHandler
0000634e  w      .text	00000000 USART3_IRQHandler
00006306  w      .text	00000000 RTC_IRQHandler
20000530 g       .bss	00000000 _ebss
00006322  w      .text	00000000 DMA1_Channel7_IRQHandler
0000688e g     F .text	0000001a RCC_USBHSPLLCKREFCLKConfig
00006582 g     F .text	00000008 GPIO_ReadInputData
0000632a  w      .text	00000000 CAN1_RX1_IRQHandler
00006b08 g     F .text	0000002a Delay_Init
0000638c  w      .text	00000000 DVP_IRQHandler
0000636a  w      .text	00000000 UART5_IRQHandler
0000633c  w      .text	00000000 TIM4_IRQHandler
000064a4 g     F .text	00000012 EXTI_GetFlagStatus
20000088 g     O .data	00000001 t_debounce
0000658a g     F .text	0000000a GPIO_WriteBit
00006370  w      .text	00000000 DMA2_Channel1_IRQHandler
000079fc g     O .text	00000020 __sf_fake_stderr
0000633e  w      .text	00000000 I2C1_EV_IRQHandler
000052ae g     F .text	00000032 USBHS_RCC_Init
000053a6 g     F .text	00000128 USBHS_Endp_DataUp
000069d4 g     F .text	0000001c TIM_GetITStatus
00006682 g     F .text	0000017e RCC_GetClocksFreq
00006320  w      .text	00000000 DMA1_Channel6_IRQHandler
00006368  w      .text	00000000 UART4_IRQHandler
00006376  w      .text	00000000 DMA2_Channel4_IRQHandler
000069fe g     F .text	000000d8 USART_Init
0000748a g     F .text	000000a4 _free_r
00006044 g     F .text	00000028 TIM3_IRQHandler
0000630a  w      .text	00000000 RCC_IRQHandler
2000050f g     O .bss	00000001 USBHS_SetupReqCode
000079d8 g     O .text	0000000a MyQuaDesc
00006334  w      .text	00000000 TIM1_TRG_COM_IRQHandler
00006316  w      .text	00000000 DMA1_Channel1_IRQHandler
20000084 g     O .data	00000004 Debounce_timer
00005000 g       .init	00000000 _start
000063a6  w      .text	00000000 DMA2_Channel7_IRQHandler
20000000 g     O .data	00000010 AHBPrescTable
000064b6 g     F .text	0000000a EXTI_ClearFlag
00007808 g     F .text	0000000c _lseek
00006350  w      .text	00000000 EXTI15_10_IRQHandler
000069be g     F .text	00000016 TIM_ITConfig
00006026 g     F .text	0000001e DB_Timer
200000a8 g     O .bss	00000004 raw_matrix
0000643a g     F .text	0000006a EXTI_Init
0000685a g     F .text	0000001a RCC_USBHSConfig
0000636e  w      .text	00000000 TIM7_IRQHandler
0000770e g     F .text	00000028 _close_r
0000637e  w      .text	00000000 CAN2_TX_IRQHandler
20000000 g       .dalign	00000000 _data_vma
00006364  w      .text	00000000 TIM5_IRQHandler
00005330 g     F .text	00000076 USBHS_Device_Init
00006ec2 g     F .text	0000010c __swsetup_r
0000632e  w      .text	00000000 EXTI9_5_IRQHandler
0000728e g     F .text	0000009c __sfp
00006598 g     F .text	0000002c GPIO_EXTILineConfig
00007626 g     F .text	00000030 __sread
0000637c  w      .text	00000000 ETH_WKUP_IRQHandler
00005ef0 g     F .text	000000a6 KB_Sleep_Wakeup_Cfg
000077b4 g     F .text	00000002 __malloc_lock
00005f96 g     F .text	00000036 KB_Scan
0000710a g     F .text	00000064 _fflush_r
00006348  w      .text	00000000 SPI2_IRQHandler
00007a1c g     O .text	00000020 __sf_fake_stdin
00005200 g     F .text	000000a8 memset
00005bf0 g     F .text	00000082 main
00005e2a g     F .text	0000006a TIM3_Init
0000639c  w      .text	00000000 TIM10_BRK_IRQHandler
00005e94 g     F .text	0000005c KB_Scan_Init
0000639a  w      .text	00000000 TIM9_CC_IRQHandler
00006160 g     F .text	000000ac KB_LED_Handle
000076da g     F .text	00000006 __sclose
00006378  w      .text	00000000 DMA2_Channel5_IRQHandler
0000752e g     F .text	000000ce _malloc_r
0000631e  w      .text	00000000 DMA1_Channel5_IRQHandler
00006314  w      .text	00000000 EXTI4_IRQHandler
00006b68 g     F .text	00000036 Delay_Ms
00006328  w      .text	00000000 USB_LP_CAN1_RX0_IRQHandler
000079c4 g     O .text	00000014 MyProdInfo
200000a4 g     O .bss	00000004 cooked_matrix
00005c72 g     F .text	000000f8 SystemInit
0000635e  w      .text	00000000 RNG_IRQHandler
20000510 g     O .bss	00000002 USBHS_SetupReqLen
20000512 g     O .bss	00000001 USBHS_DevSleepStatus
00006326  w      .text	00000000 USB_HP_CAN1_TX_IRQHandler
00005000 g       .init	00000000 _sinit
000076e0 g     F .text	0000002e _write_r
0000631a  w      .text	00000000 DMA1_Channel3_IRQHandler
00006360  w      .text	00000000 FSMC_IRQHandler
0000637a  w      .text	00000000 ETH_IRQHandler
20000094 g     O .data	00000004 _impure_ptr
00006332  w      .text	00000000 TIM1_UP_IRQHandler
00006fce g     F .text	0000013c __sflush_r
00006300  w      .text	00000000 WWDG_IRQHandler
00006388  w      .text	00000000 USBHSWakeup_IRQHandler
000063ae  w      .text	00000000 DMA2_Channel11_IRQHandler
000062f8  w      .text	00000000 Ecall_U_Mode_Handler
000063a4  w      .text	00000000 DMA2_Channel6_IRQHandler
00006338  w      .text	00000000 TIM2_IRQHandler
20008000 g       .stack	00000000 _eusrstack
000062fe  w      .text	00000000 SW_Handler
00006330  w      .text	00000000 TIM1_BRK_IRQHandler
00007396 g     F .text	00000058 __swhatbuf_r
00006af2 g     F .text	0000000a USART_SendData
20000514 g     O .bss	00000002 USBHS_HidIdle
000063ac  w      .text	00000000 DMA2_Channel10_IRQHandler
0000630e  w      .text	00000000 EXTI1_IRQHandler
00006bf6 g     F .text	0000004c _write
200000a0 g       .data	00000000 _edata
20000530 g       .bss	00000000 _end
200000a2 g     O .bss	00000001 KB_LED_Cur_Status
000068e2 g     F .text	000000c0 TIM_TimeBaseInit
00006352  w      .text	00000000 RTCAlarm_IRQHandler
000052e0 g     F .text	00000050 USBHS_Device_Endp_Init
00007a5c g       .dlalign	00000000 _data_lma
0000639e  w      .text	00000000 TIM10_UP_IRQHandler
00006398  w      .text	00000000 TIM9_TRG_COM_IRQHandler
00006390  w      .text	00000000 UART7_IRQHandler
0000634c  w      .text	00000000 USART2_IRQHandler
0000638e  w      .text	00000000 UART6_IRQHandler
00007656 g     F .text	0000004e __swrite
0000732a g     F .text	0000006c _fwalk_reent
00005d6a g     F .text	000000c0 SystemCoreClockUpdate
200000a3 g     O .bss	00000001 KB_LED_Last_Status
00006344  w      .text	00000000 I2C2_ER_IRQHandler
00006318  w      .text	00000000 DMA1_Channel2_IRQHandler
00007a3c g     O .text	00000020 __sf_fake_stdout
00006356  w      .text	00000000 TIM8_BRK_IRQHandler
00007814 g     F .text	0000000c _read
000063b0  w      .text	00000000 handle_reset
0000632c  w      .text	00000000 CAN1_SCE_IRQHandler
00006308  w      .text	00000000 FLASH_IRQHandler
0000634a  w      .text	00000000 USART1_IRQHandler
000073ee g     F .text	0000009c __smakebuf_r
00005bbc g     F .text	00000034 USBHS_Send_Resume
00006386  w      .text	00000000 OTG_FS_IRQHandler
00006366  w      .text	00000000 SPI3_IRQHandler
00006242 g     F .text	000000b0 MCU_Sleep_Wakeup_Operate
200000bc g     O .bss	00000004 __malloc_sbrk_start
00006340  w      .text	00000000 I2C1_ER_IRQHandler
000065c4 g     F .text	00000006 NVIC_PriorityGroupConfig
20000516 g     O .bss	00000001 USBHS_DevEnumStatus
200000b8 g     O .bss	00000004 __malloc_free_list
20000518 g     O .bss	00000010 USBHS_Endp_Busy
20000528 g     O .bss	00000001 status
00007910 g     O .text	00000050 MediaRepDesc
00006354  w      .text	00000000 USBWakeUp_IRQHandler
000077e4 g     F .text	0000000c _close
0000606c g     F .text	000000c2 KB_Scan_Handle
00006374  w      .text	00000000 DMA2_Channel3_IRQHandler



Disassembly of section .init:

00005000 <_sinit>:
    5000:	3b00106f          	j	63b0 <handle_reset>
    5004:	00000013          	nop
    5008:	00000013          	nop
    500c:	00000013          	nop
    5010:	00000013          	nop
    5014:	00000013          	nop
    5018:	00000013          	nop
    501c:	00000013          	nop
    5020:	00000013          	nop
    5024:	00000013          	nop
    5028:	00000013          	nop
    502c:	00000013          	nop
    5030:	00000013          	nop
    5034:	00100073          	ebreak

Disassembly of section .vector:

00005038 <_vector_base>:
    5038:	5000                	lw	s0,32(s0)
    503a:	0000                	unimp
    503c:	0000                	unimp
    503e:	0000                	unimp
    5040:	52a8                	lw	a0,96(a3)
    5042:	0000                	unimp
    5044:	52ac                	lw	a1,96(a3)
    5046:	0000                	unimp
    5048:	0000                	unimp
    504a:	0000                	unimp
    504c:	62f6                	flw	ft5,92(sp)
	...
    5056:	0000                	unimp
    5058:	62f8                	flw	fa4,68(a3)
    505a:	0000                	unimp
    505c:	62fa                	flw	ft5,156(sp)
	...
    5066:	0000                	unimp
    5068:	62fc                	flw	fa5,68(a3)
    506a:	0000                	unimp
    506c:	0000                	unimp
    506e:	0000                	unimp
    5070:	62fe                	flw	ft5,220(sp)
    5072:	0000                	unimp
    5074:	0000                	unimp
    5076:	0000                	unimp
    5078:	6300                	flw	fs0,0(a4)
    507a:	0000                	unimp
    507c:	6302                	flw	ft6,0(sp)
    507e:	0000                	unimp
    5080:	6304                	flw	fs1,0(a4)
    5082:	0000                	unimp
    5084:	6306                	flw	ft6,64(sp)
    5086:	0000                	unimp
    5088:	6308                	flw	fa0,0(a4)
    508a:	0000                	unimp
    508c:	630a                	flw	ft6,128(sp)
    508e:	0000                	unimp
    5090:	630c                	flw	fa1,0(a4)
    5092:	0000                	unimp
    5094:	630e                	flw	ft6,192(sp)
    5096:	0000                	unimp
    5098:	6310                	flw	fa2,0(a4)
    509a:	0000                	unimp
    509c:	6312                	flw	ft6,4(sp)
    509e:	0000                	unimp
    50a0:	6314                	flw	fa3,0(a4)
    50a2:	0000                	unimp
    50a4:	6316                	flw	ft6,68(sp)
    50a6:	0000                	unimp
    50a8:	6318                	flw	fa4,0(a4)
    50aa:	0000                	unimp
    50ac:	631a                	flw	ft6,132(sp)
    50ae:	0000                	unimp
    50b0:	631c                	flw	fa5,0(a4)
    50b2:	0000                	unimp
    50b4:	631e                	flw	ft6,196(sp)
    50b6:	0000                	unimp
    50b8:	6320                	flw	fs0,64(a4)
    50ba:	0000                	unimp
    50bc:	6322                	flw	ft6,8(sp)
    50be:	0000                	unimp
    50c0:	6324                	flw	fs1,64(a4)
    50c2:	0000                	unimp
    50c4:	6326                	flw	ft6,72(sp)
    50c6:	0000                	unimp
    50c8:	6328                	flw	fa0,64(a4)
    50ca:	0000                	unimp
    50cc:	632a                	flw	ft6,136(sp)
    50ce:	0000                	unimp
    50d0:	632c                	flw	fa1,64(a4)
    50d2:	0000                	unimp
    50d4:	632e                	flw	ft6,200(sp)
    50d6:	0000                	unimp
    50d8:	6330                	flw	fa2,64(a4)
    50da:	0000                	unimp
    50dc:	6332                	flw	ft6,12(sp)
    50de:	0000                	unimp
    50e0:	6334                	flw	fa3,64(a4)
    50e2:	0000                	unimp
    50e4:	6336                	flw	ft6,76(sp)
    50e6:	0000                	unimp
    50e8:	6338                	flw	fa4,64(a4)
    50ea:	0000                	unimp
    50ec:	6044                	flw	fs1,4(s0)
    50ee:	0000                	unimp
    50f0:	633c                	flw	fa5,64(a4)
    50f2:	0000                	unimp
    50f4:	633e                	flw	ft6,204(sp)
    50f6:	0000                	unimp
    50f8:	6340                	flw	fs0,4(a4)
    50fa:	0000                	unimp
    50fc:	6342                	flw	ft6,16(sp)
    50fe:	0000                	unimp
    5100:	6344                	flw	fs1,4(a4)
    5102:	0000                	unimp
    5104:	6346                	flw	ft6,80(sp)
    5106:	0000                	unimp
    5108:	6348                	flw	fa0,4(a4)
    510a:	0000                	unimp
    510c:	634a                	flw	ft6,144(sp)
    510e:	0000                	unimp
    5110:	634c                	flw	fa1,4(a4)
    5112:	0000                	unimp
    5114:	634e                	flw	ft6,208(sp)
    5116:	0000                	unimp
    5118:	6350                	flw	fa2,4(a4)
    511a:	0000                	unimp
    511c:	6352                	flw	ft6,20(sp)
    511e:	0000                	unimp
    5120:	6354                	flw	fa3,4(a4)
    5122:	0000                	unimp
    5124:	6356                	flw	ft6,84(sp)
    5126:	0000                	unimp
    5128:	6358                	flw	fa4,4(a4)
    512a:	0000                	unimp
    512c:	635a                	flw	ft6,148(sp)
    512e:	0000                	unimp
    5130:	635c                	flw	fa5,4(a4)
    5132:	0000                	unimp
    5134:	635e                	flw	ft6,212(sp)
    5136:	0000                	unimp
    5138:	6360                	flw	fs0,68(a4)
    513a:	0000                	unimp
    513c:	6362                	flw	ft6,24(sp)
    513e:	0000                	unimp
    5140:	6364                	flw	fs1,68(a4)
    5142:	0000                	unimp
    5144:	6366                	flw	ft6,88(sp)
    5146:	0000                	unimp
    5148:	6368                	flw	fa0,68(a4)
    514a:	0000                	unimp
    514c:	636a                	flw	ft6,152(sp)
    514e:	0000                	unimp
    5150:	636c                	flw	fa1,68(a4)
    5152:	0000                	unimp
    5154:	636e                	flw	ft6,216(sp)
    5156:	0000                	unimp
    5158:	6370                	flw	fa2,68(a4)
    515a:	0000                	unimp
    515c:	6372                	flw	ft6,28(sp)
    515e:	0000                	unimp
    5160:	6374                	flw	fa3,68(a4)
    5162:	0000                	unimp
    5164:	6376                	flw	ft6,92(sp)
    5166:	0000                	unimp
    5168:	6378                	flw	fa4,68(a4)
    516a:	0000                	unimp
    516c:	637a                	flw	ft6,156(sp)
    516e:	0000                	unimp
    5170:	637c                	flw	fa5,68(a4)
    5172:	0000                	unimp
    5174:	637e                	flw	ft6,220(sp)
    5176:	0000                	unimp
    5178:	6380                	flw	fs0,0(a5)
    517a:	0000                	unimp
    517c:	6382                	flw	ft7,0(sp)
    517e:	0000                	unimp
    5180:	6384                	flw	fs1,0(a5)
    5182:	0000                	unimp
    5184:	6386                	flw	ft7,64(sp)
    5186:	0000                	unimp
    5188:	6388                	flw	fa0,0(a5)
    518a:	0000                	unimp
    518c:	54ce                	lw	s1,240(sp)
    518e:	0000                	unimp
    5190:	638c                	flw	fa1,0(a5)
    5192:	0000                	unimp
    5194:	638e                	flw	ft7,192(sp)
    5196:	0000                	unimp
    5198:	6390                	flw	fa2,0(a5)
    519a:	0000                	unimp
    519c:	6392                	flw	ft7,4(sp)
    519e:	0000                	unimp
    51a0:	6394                	flw	fa3,0(a5)
    51a2:	0000                	unimp
    51a4:	6396                	flw	ft7,68(sp)
    51a6:	0000                	unimp
    51a8:	6398                	flw	fa4,0(a5)
    51aa:	0000                	unimp
    51ac:	639a                	flw	ft7,132(sp)
    51ae:	0000                	unimp
    51b0:	639c                	flw	fa5,0(a5)
    51b2:	0000                	unimp
    51b4:	639e                	flw	ft7,196(sp)
    51b6:	0000                	unimp
    51b8:	63a0                	flw	fs0,64(a5)
    51ba:	0000                	unimp
    51bc:	63a2                	flw	ft7,8(sp)
    51be:	0000                	unimp
    51c0:	63a4                	flw	fs1,64(a5)
    51c2:	0000                	unimp
    51c4:	63a6                	flw	ft7,72(sp)
    51c6:	0000                	unimp
    51c8:	63a8                	flw	fa0,64(a5)
    51ca:	0000                	unimp
    51cc:	63aa                	flw	ft7,136(sp)
    51ce:	0000                	unimp
    51d0:	63ac                	flw	fa1,64(a5)
    51d2:	0000                	unimp
    51d4:	63ae                	flw	ft7,200(sp)
	...

Disassembly of section .text:

00005200 <memset>:
    5200:	433d                	li	t1,15
    5202:	872a                	mv	a4,a0
    5204:	02c37363          	bgeu	t1,a2,522a <memset+0x2a>
    5208:	00f77793          	andi	a5,a4,15
    520c:	efbd                	bnez	a5,528a <memset+0x8a>
    520e:	e5ad                	bnez	a1,5278 <memset+0x78>
    5210:	ff067693          	andi	a3,a2,-16
    5214:	8a3d                	andi	a2,a2,15
    5216:	96ba                	add	a3,a3,a4
    5218:	c30c                	sw	a1,0(a4)
    521a:	c34c                	sw	a1,4(a4)
    521c:	c70c                	sw	a1,8(a4)
    521e:	c74c                	sw	a1,12(a4)
    5220:	0741                	addi	a4,a4,16
    5222:	fed76be3          	bltu	a4,a3,5218 <memset+0x18>
    5226:	e211                	bnez	a2,522a <memset+0x2a>
    5228:	8082                	ret
    522a:	40c306b3          	sub	a3,t1,a2
    522e:	068a                	slli	a3,a3,0x2
    5230:	00000297          	auipc	t0,0x0
    5234:	9696                	add	a3,a3,t0
    5236:	00a68067          	jr	10(a3)
    523a:	00b70723          	sb	a1,14(a4)
    523e:	00b706a3          	sb	a1,13(a4)
    5242:	00b70623          	sb	a1,12(a4)
    5246:	00b705a3          	sb	a1,11(a4)
    524a:	00b70523          	sb	a1,10(a4)
    524e:	00b704a3          	sb	a1,9(a4)
    5252:	00b70423          	sb	a1,8(a4)
    5256:	00b703a3          	sb	a1,7(a4)
    525a:	00b70323          	sb	a1,6(a4)
    525e:	00b702a3          	sb	a1,5(a4)
    5262:	00b70223          	sb	a1,4(a4)
    5266:	00b701a3          	sb	a1,3(a4)
    526a:	00b70123          	sb	a1,2(a4)
    526e:	00b700a3          	sb	a1,1(a4)
    5272:	00b70023          	sb	a1,0(a4)
    5276:	8082                	ret
    5278:	0ff5f593          	andi	a1,a1,255
    527c:	00859693          	slli	a3,a1,0x8
    5280:	8dd5                	or	a1,a1,a3
    5282:	01059693          	slli	a3,a1,0x10
    5286:	8dd5                	or	a1,a1,a3
    5288:	b761                	j	5210 <memset+0x10>
    528a:	00279693          	slli	a3,a5,0x2
    528e:	00000297          	auipc	t0,0x0
    5292:	9696                	add	a3,a3,t0
    5294:	8286                	mv	t0,ra
    5296:	fa8680e7          	jalr	-88(a3)
    529a:	8096                	mv	ra,t0
    529c:	17c1                	addi	a5,a5,-16
    529e:	8f1d                	sub	a4,a4,a5
    52a0:	963e                	add	a2,a2,a5
    52a2:	f8c374e3          	bgeu	t1,a2,522a <memset+0x2a>
    52a6:	b7a5                	j	520e <memset+0xe>

000052a8 <NMI_Handler>:
    52a8:	30200073          	mret

000052ac <HardFault_Handler>:
    52ac:	a001                	j	52ac <HardFault_Handler>

000052ae <USBHS_RCC_Init>:
    52ae:	1141                	addi	sp,sp,-16
    52b0:	4505                	li	a0,1
    52b2:	c606                	sw	ra,12(sp)
    52b4:	618010ef          	jal	ra,68cc <RCC_USBCLK48MConfig>
    52b8:	4501                	li	a0,0
    52ba:	5ba010ef          	jal	ra,6874 <RCC_USBHSPLLCLKConfig>
    52be:	4505                	li	a0,1
    52c0:	59a010ef          	jal	ra,685a <RCC_USBHSConfig>
    52c4:	4505                	li	a0,1
    52c6:	5c8010ef          	jal	ra,688e <RCC_USBHSPLLCKREFCLKConfig>
    52ca:	4505                	li	a0,1
    52cc:	5dc010ef          	jal	ra,68a8 <RCC_USBHSPHYPLLALIVEcmd>
    52d0:	40b2                	lw	ra,12(sp)
    52d2:	6505                	lui	a0,0x1
    52d4:	4585                	li	a1,1
    52d6:	80050513          	addi	a0,a0,-2048 # 800 <__stack_size>
    52da:	0141                	addi	sp,sp,16
    52dc:	5240106f          	j	6800 <RCC_AHBPeriphClockCmd>

000052e0 <USBHS_Device_Endp_Init>:
    52e0:	6741                	lui	a4,0x10
    52e2:	400237b7          	lui	a5,0x40023
    52e6:	071d                	addi	a4,a4,7
    52e8:	40e7a823          	sw	a4,1040(a5) # 40023410 <_eusrstack+0x2001b410>
    52ec:	04000713          	li	a4,64
    52f0:	48e79c23          	sh	a4,1176(a5)
    52f4:	20000713          	li	a4,512
    52f8:	48e79e23          	sh	a4,1180(a5)
    52fc:	4ae79023          	sh	a4,1184(a5)
    5300:	c4818713          	addi	a4,gp,-952 # 200004c8 <USBHS_EP0_Buf>
    5304:	40e7ae23          	sw	a4,1052(a5)
    5308:	a4818713          	addi	a4,gp,-1464 # 200002c8 <USBHS_EP1_TX_Buf>
    530c:	44e7ae23          	sw	a4,1116(a5)
    5310:	20000737          	lui	a4,0x20000
    5314:	0c070713          	addi	a4,a4,192 # 200000c0 <USBHS_EP2_TX_Buf>
    5318:	46e7a023          	sw	a4,1120(a5)
    531c:	4709                	li	a4,2
    531e:	4ce78d23          	sb	a4,1242(a5)
    5322:	4c078da3          	sb	zero,1243(a5)
    5326:	4ce78f23          	sb	a4,1246(a5)
    532a:	4ee78123          	sb	a4,1250(a5)
    532e:	8082                	ret

00005330 <USBHS_Device_Init>:
    5330:	1141                	addi	sp,sp,-16
    5332:	c422                	sw	s0,8(sp)
    5334:	c606                	sw	ra,12(sp)
    5336:	c226                	sw	s1,4(sp)
    5338:	40023437          	lui	s0,0x40023
    533c:	c531                	beqz	a0,5388 <USBHS_Device_Init+0x58>
    533e:	4799                	li	a5,6
    5340:	40f40023          	sb	a5,1024(s0) # 40023400 <_eusrstack+0x2001b400>
    5344:	4529                	li	a0,10
    5346:	7ec010ef          	jal	ra,6b32 <Delay_Us>
    534a:	47c1                	li	a5,16
    534c:	40040023          	sb	zero,1024(s0)
    5350:	40f400a3          	sb	a5,1025(s0)
    5354:	02900793          	li	a5,41
    5358:	40f40023          	sb	a5,1024(s0)
    535c:	02700793          	li	a5,39
    5360:	40f40123          	sb	a5,1026(s0)
    5364:	3fb5                	jal	52e0 <USBHS_Device_Endp_Init>
    5366:	40044783          	lbu	a5,1024(s0)
    536a:	00200737          	lui	a4,0x200
    536e:	0107e793          	ori	a5,a5,16
    5372:	40f40023          	sb	a5,1024(s0)
    5376:	e000e7b7          	lui	a5,0xe000e
    537a:	10e7a423          	sw	a4,264(a5) # e000e108 <_eusrstack+0xc0006108>
    537e:	40b2                	lw	ra,12(sp)
    5380:	4422                	lw	s0,8(sp)
    5382:	4492                	lw	s1,4(sp)
    5384:	0141                	addi	sp,sp,16
    5386:	8082                	ret
    5388:	4799                	li	a5,6
    538a:	40f40023          	sb	a5,1024(s0)
    538e:	4529                	li	a0,10
    5390:	7a2010ef          	jal	ra,6b32 <Delay_Us>
    5394:	e000e7b7          	lui	a5,0xe000e
    5398:	40040023          	sb	zero,1024(s0)
    539c:	00200737          	lui	a4,0x200
    53a0:	18e7a423          	sw	a4,392(a5) # e000e188 <_eusrstack+0xc0006188>
    53a4:	bfe9                	j	537e <USBHS_Device_Init+0x4e>

000053a6 <USBHS_Endp_DataUp>:
    53a6:	fff50793          	addi	a5,a0,-1
    53aa:	0ff7f813          	andi	a6,a5,255
    53ae:	4739                	li	a4,14
    53b0:	11076c63          	bltu	a4,a6,54c8 <USBHS_Endp_DataUp+0x122>
    53b4:	40023737          	lui	a4,0x40023
    53b8:	41072e83          	lw	t4,1040(a4) # 40023410 <_eusrstack+0x2001b410>
    53bc:	4e05                	li	t3,1
    53be:	00ae1fb3          	sll	t6,t3,a0
    53c2:	0ffefe93          	andi	t4,t4,255
    53c6:	01feff33          	and	t5,t4,t6
    53ca:	4881                	li	a7,0
    53cc:	0e0f0f63          	beqz	t5,54ca <USBHS_Endp_DataUp+0x124>
    53d0:	1141                	addi	sp,sp,-16
    53d2:	c422                	sw	s0,8(sp)
    53d4:	c9818893          	addi	a7,gp,-872 # 20000518 <USBHS_Endp_Busy>
    53d8:	98aa                	add	a7,a7,a0
    53da:	c606                	sw	ra,12(sp)
    53dc:	c226                	sw	s1,4(sp)
    53de:	c04a                	sw	s2,0(sp)
    53e0:	0008cf03          	lbu	t5,0(a7)
    53e4:	c9818413          	addi	s0,gp,-872 # 20000518 <USBHS_Endp_Busy>
    53e8:	4881                	li	a7,0
    53ea:	001f7f13          	andi	t5,t5,1
    53ee:	060f1d63          	bnez	t5,5468 <USBHS_Endp_DataUp+0xc2>
    53f2:	41872803          	lw	a6,1048(a4)
    53f6:	832e                	mv	t1,a1
    53f8:	84b2                	mv	s1,a2
    53fa:	0ff87813          	andi	a6,a6,255
    53fe:	01f87833          	and	a6,a6,t6
    5402:	892a                	mv	s2,a0
    5404:	0a080063          	beqz	a6,54a4 <USBHS_Endp_DataUp+0xfe>
    5408:	0541                	addi	a0,a0,16
    540a:	00ae1533          	sll	a0,t3,a0
    540e:	01d57533          	and	a0,a0,t4
    5412:	e939                	bnez	a0,5468 <USBHS_Endp_DataUp+0xc2>
    5414:	078a                	slli	a5,a5,0x2
    5416:	4de70513          	addi	a0,a4,1246
    541a:	953e                	add	a0,a0,a5
    541c:	00054803          	lbu	a6,0(a0)
    5420:	0ff87813          	andi	a6,a6,255
    5424:	eea1                	bnez	a3,547c <USBHS_Endp_DataUp+0xd6>
    5426:	00887813          	andi	a6,a6,8
    542a:	04080663          	beqz	a6,5476 <USBHS_Endp_DataUp+0xd0>
    542e:	45c70713          	addi	a4,a4,1116
    5432:	97ba                	add	a5,a5,a4
    5434:	0067a023          	sw	t1,0(a5)
    5438:	100097b7          	lui	a5,0x10009
    543c:	d3678793          	addi	a5,a5,-714 # 10008d36 <_data_lma+0x100012da>
    5440:	97ca                	add	a5,a5,s2
    5442:	078a                	slli	a5,a5,0x2
    5444:	00979023          	sh	s1,0(a5)
    5448:	0027c703          	lbu	a4,2(a5)
    544c:	944a                	add	s0,s0,s2
    544e:	4885                	li	a7,1
    5450:	0fc77713          	andi	a4,a4,252
    5454:	00e78123          	sb	a4,2(a5)
    5458:	00e78123          	sb	a4,2(a5)
    545c:	00044783          	lbu	a5,0(s0)
    5460:	0017e793          	ori	a5,a5,1
    5464:	00f40023          	sb	a5,0(s0)
    5468:	40b2                	lw	ra,12(sp)
    546a:	4422                	lw	s0,8(sp)
    546c:	4492                	lw	s1,4(sp)
    546e:	4902                	lw	s2,0(sp)
    5470:	8546                	mv	a0,a7
    5472:	0141                	addi	sp,sp,16
    5474:	8082                	ret
    5476:	42070713          	addi	a4,a4,1056
    547a:	bf65                	j	5432 <USBHS_Endp_DataUp+0x8c>
    547c:	4881                	li	a7,0
    547e:	ffc695e3          	bne	a3,t3,5468 <USBHS_Endp_DataUp+0xc2>
    5482:	00887813          	andi	a6,a6,8
    5486:	00080c63          	beqz	a6,549e <USBHS_Endp_DataUp+0xf8>
    548a:	45c70713          	addi	a4,a4,1116
    548e:	97ba                	add	a5,a5,a4
    5490:	4388                	lw	a0,0(a5)
    5492:	200007b7          	lui	a5,0x20000
    5496:	953e                	add	a0,a0,a5
    5498:	7d0010ef          	jal	ra,6c68 <memcpy>
    549c:	bf71                	j	5438 <USBHS_Endp_DataUp+0x92>
    549e:	42070713          	addi	a4,a4,1056
    54a2:	b7f5                	j	548e <USBHS_Endp_DataUp+0xe8>
    54a4:	ea81                	bnez	a3,54b4 <USBHS_Endp_DataUp+0x10e>
    54a6:	100097b7          	lui	a5,0x10009
    54aa:	d1678793          	addi	a5,a5,-746 # 10008d16 <_data_lma+0x100012ba>
    54ae:	97aa                	add	a5,a5,a0
    54b0:	078a                	slli	a5,a5,0x2
    54b2:	b749                	j	5434 <USBHS_Endp_DataUp+0x8e>
    54b4:	4881                	li	a7,0
    54b6:	fbc699e3          	bne	a3,t3,5468 <USBHS_Endp_DataUp+0xc2>
    54ba:	100097b7          	lui	a5,0x10009
    54be:	d1678793          	addi	a5,a5,-746 # 10008d16 <_data_lma+0x100012ba>
    54c2:	97aa                	add	a5,a5,a0
    54c4:	078a                	slli	a5,a5,0x2
    54c6:	b7e9                	j	5490 <USBHS_Endp_DataUp+0xea>
    54c8:	4881                	li	a7,0
    54ca:	8546                	mv	a0,a7
    54cc:	8082                	ret

000054ce <USBHS_IRQHandler>:
    54ce:	1101                	addi	sp,sp,-32
    54d0:	ce22                	sw	s0,28(sp)
    54d2:	40023437          	lui	s0,0x40023
    54d6:	cc26                	sw	s1,24(sp)
    54d8:	ca4a                	sw	s2,20(sp)
    54da:	c84e                	sw	s3,16(sp)
    54dc:	c652                	sw	s4,12(sp)
    54de:	c456                	sw	s5,8(sp)
    54e0:	40040413          	addi	s0,s0,1024 # 40023400 <_eusrstack+0x2001b400>
    54e4:	00a44703          	lbu	a4,10(s0)
    54e8:	00b44783          	lbu	a5,11(s0)
    54ec:	0ff77713          	andi	a4,a4,255
    54f0:	00277693          	andi	a3,a4,2
    54f4:	18068763          	beqz	a3,5682 <USBHS_IRQHandler+0x1b4>
    54f8:	0ff7f793          	andi	a5,a5,255
    54fc:	0307f713          	andi	a4,a5,48
    5500:	12070863          	beqz	a4,5630 <USBHS_IRQHandler+0x162>
    5504:	02000693          	li	a3,32
    5508:	0ad71663          	bne	a4,a3,55b4 <USBHS_IRQHandler+0xe6>
    550c:	03f7f793          	andi	a5,a5,63
    5510:	02100693          	li	a3,33
    5514:	0cd78063          	beq	a5,a3,55d4 <USBHS_IRQHandler+0x106>
    5518:	02200693          	li	a3,34
    551c:	0ed78363          	beq	a5,a3,5602 <USBHS_IRQHandler+0x134>
    5520:	08e79a63          	bne	a5,a4,55b4 <USBHS_IRQHandler+0xe6>
    5524:	c901d783          	lhu	a5,-880(gp) # 20000510 <USBHS_SetupReqLen>
    5528:	07c2                	slli	a5,a5,0x10
    552a:	83c1                	srli	a5,a5,0x10
    552c:	e781                	bnez	a5,5534 <USBHS_IRQHandler+0x66>
    552e:	47a1                	li	a5,8
    5530:	0cf40da3          	sb	a5,219(s0)
    5534:	c891c783          	lbu	a5,-887(gp) # 20000509 <USBHS_SetupReqType>
    5538:	0607f793          	andi	a5,a5,96
    553c:	efa5                	bnez	a5,55b4 <USBHS_IRQHandler+0xe6>
    553e:	c8f1c783          	lbu	a5,-881(gp) # 2000050f <USBHS_SetupReqCode>
    5542:	4715                	li	a4,5
    5544:	0ff7f793          	andi	a5,a5,255
    5548:	04e78e63          	beq	a5,a4,55a4 <USBHS_IRQHandler+0xd6>
    554c:	4719                	li	a4,6
    554e:	06e79363          	bne	a5,a4,55b4 <USBHS_IRQHandler+0xe6>
    5552:	c901d783          	lhu	a5,-880(gp) # 20000510 <USBHS_SetupReqLen>
    5556:	03f00713          	li	a4,63
    555a:	04000413          	li	s0,64
    555e:	00f76663          	bltu	a4,a5,556a <USBHS_IRQHandler+0x9c>
    5562:	c901d403          	lhu	s0,-880(gp) # 20000510 <USBHS_SetupReqLen>
    5566:	0442                	slli	s0,s0,0x10
    5568:	8041                	srli	s0,s0,0x10
    556a:	a401a903          	lw	s2,-1472(gp) # 200002c0 <pUSBHS_Descr>
    556e:	8622                	mv	a2,s0
    5570:	85ca                	mv	a1,s2
    5572:	c4818513          	addi	a0,gp,-952 # 200004c8 <USBHS_EP0_Buf>
    5576:	6f2010ef          	jal	ra,6c68 <memcpy>
    557a:	c901d783          	lhu	a5,-880(gp) # 20000510 <USBHS_SetupReqLen>
    557e:	9922                	add	s2,s2,s0
    5580:	a521a023          	sw	s2,-1472(gp) # 200002c0 <pUSBHS_Descr>
    5584:	8f81                	sub	a5,a5,s0
    5586:	07c2                	slli	a5,a5,0x10
    5588:	83c1                	srli	a5,a5,0x10
    558a:	c8f19823          	sh	a5,-880(gp) # 20000510 <USBHS_SetupReqLen>
    558e:	400237b7          	lui	a5,0x40023
    5592:	4c879c23          	sh	s0,1240(a5) # 400234d8 <_eusrstack+0x2001b4d8>
    5596:	4da7c703          	lbu	a4,1242(a5)
    559a:	00874713          	xori	a4,a4,8
    559e:	4ce78d23          	sb	a4,1242(a5)
    55a2:	a809                	j	55b4 <USBHS_IRQHandler+0xe6>
    55a4:	c8e1c703          	lbu	a4,-882(gp) # 2000050e <USBHS_DevAddr>
    55a8:	400237b7          	lui	a5,0x40023
    55ac:	0ff77713          	andi	a4,a4,255
    55b0:	40e781a3          	sb	a4,1027(a5) # 40023403 <_eusrstack+0x2001b403>
    55b4:	400237b7          	lui	a5,0x40023
    55b8:	4709                	li	a4,2
    55ba:	40e78523          	sb	a4,1034(a5) # 4002340a <_eusrstack+0x2001b40a>
    55be:	40078793          	addi	a5,a5,1024
    55c2:	4472                	lw	s0,28(sp)
    55c4:	44e2                	lw	s1,24(sp)
    55c6:	4952                	lw	s2,20(sp)
    55c8:	49c2                	lw	s3,16(sp)
    55ca:	4a32                	lw	s4,12(sp)
    55cc:	4aa2                	lw	s5,8(sp)
    55ce:	6105                	addi	sp,sp,32
    55d0:	30200073          	mret
    55d4:	0de44783          	lbu	a5,222(s0)
    55d8:	0fc7f793          	andi	a5,a5,252
    55dc:	0027e793          	ori	a5,a5,2
    55e0:	0cf40f23          	sb	a5,222(s0)
    55e4:	0de44783          	lbu	a5,222(s0)
    55e8:	0087c793          	xori	a5,a5,8
    55ec:	0cf40f23          	sb	a5,222(s0)
    55f0:	c9818793          	addi	a5,gp,-872 # 20000518 <USBHS_Endp_Busy>
    55f4:	0017c703          	lbu	a4,1(a5)
    55f8:	0fe77713          	andi	a4,a4,254
    55fc:	00e780a3          	sb	a4,1(a5)
    5600:	bf55                	j	55b4 <USBHS_IRQHandler+0xe6>
    5602:	0e244783          	lbu	a5,226(s0)
    5606:	0fc7f793          	andi	a5,a5,252
    560a:	0027e793          	ori	a5,a5,2
    560e:	0ef40123          	sb	a5,226(s0)
    5612:	0e244783          	lbu	a5,226(s0)
    5616:	0087c793          	xori	a5,a5,8
    561a:	0ef40123          	sb	a5,226(s0)
    561e:	c9818793          	addi	a5,gp,-872 # 20000518 <USBHS_Endp_Busy>
    5622:	0027c703          	lbu	a4,2(a5)
    5626:	0fe77713          	andi	a4,a4,254
    562a:	00e78123          	sb	a4,2(a5)
    562e:	b759                	j	55b4 <USBHS_IRQHandler+0xe6>
    5630:	03f7f713          	andi	a4,a5,63
    5634:	f341                	bnez	a4,55b4 <USBHS_IRQHandler+0xe6>
    5636:	0407f793          	andi	a5,a5,64
    563a:	cb8d                	beqz	a5,566c <USBHS_IRQHandler+0x19e>
    563c:	c891c783          	lbu	a5,-887(gp) # 20000509 <USBHS_SetupReqType>
    5640:	0607f793          	andi	a5,a5,96
    5644:	c785                	beqz	a5,566c <USBHS_IRQHandler+0x19e>
    5646:	c891c783          	lbu	a5,-887(gp) # 20000509 <USBHS_SetupReqType>
    564a:	02000693          	li	a3,32
    564e:	0607f793          	andi	a5,a5,96
    5652:	00d79d63          	bne	a5,a3,566c <USBHS_IRQHandler+0x19e>
    5656:	c8f1c783          	lbu	a5,-881(gp) # 2000050f <USBHS_SetupReqCode>
    565a:	46a5                	li	a3,9
    565c:	00f69863          	bne	a3,a5,566c <USBHS_IRQHandler+0x19e>
    5660:	c481c683          	lbu	a3,-952(gp) # 200004c8 <USBHS_EP0_Buf>
    5664:	82d18123          	sb	a3,-2014(gp) # 200000a2 <KB_LED_Cur_Status>
    5668:	c8019823          	sh	zero,-880(gp) # 20000510 <USBHS_SetupReqLen>
    566c:	c901d783          	lhu	a5,-880(gp) # 20000510 <USBHS_SetupReqLen>
    5670:	07c2                	slli	a5,a5,0x10
    5672:	83c1                	srli	a5,a5,0x10
    5674:	f3a1                	bnez	a5,55b4 <USBHS_IRQHandler+0xe6>
    5676:	400237b7          	lui	a5,0x40023
    567a:	4c079c23          	sh	zero,1240(a5) # 400234d8 <_eusrstack+0x2001b4d8>
    567e:	4721                	li	a4,8
    5680:	bf39                	j	559e <USBHS_IRQHandler+0xd0>
    5682:	02077793          	andi	a5,a4,32
    5686:	4c078663          	beqz	a5,5b52 <USBHS_IRQHandler+0x684>
    568a:	47a9                	li	a5,10
    568c:	0cf40d23          	sb	a5,218(s0)
    5690:	0cf40da3          	sb	a5,219(s0)
    5694:	c481c783          	lbu	a5,-952(gp) # 200004c8 <USBHS_EP0_Buf>
    5698:	c8f184a3          	sb	a5,-887(gp) # 20000509 <USBHS_SetupReqType>
    569c:	c4818793          	addi	a5,gp,-952 # 200004c8 <USBHS_EP0_Buf>
    56a0:	0017c703          	lbu	a4,1(a5)
    56a4:	0027d603          	lhu	a2,2(a5)
    56a8:	c8e187a3          	sb	a4,-881(gp) # 2000050f <USBHS_SetupReqCode>
    56ac:	0067d703          	lhu	a4,6(a5)
    56b0:	c8e19823          	sh	a4,-880(gp) # 20000510 <USBHS_SetupReqLen>
    56b4:	c8c19523          	sh	a2,-886(gp) # 2000050a <USBHS_SetupReqValue>
    56b8:	0047d603          	lhu	a2,4(a5)
    56bc:	c8c19623          	sh	a2,-884(gp) # 2000050c <USBHS_SetupReqIndex>
    56c0:	c891c603          	lbu	a2,-887(gp) # 20000509 <USBHS_SetupReqType>
    56c4:	06067613          	andi	a2,a2,96
    56c8:	10060b63          	beqz	a2,57de <USBHS_IRQHandler+0x310>
    56cc:	c891c603          	lbu	a2,-887(gp) # 20000509 <USBHS_SetupReqType>
    56d0:	02000593          	li	a1,32
    56d4:	06067613          	andi	a2,a2,96
    56d8:	02b61b63          	bne	a2,a1,570e <USBHS_IRQHandler+0x240>
    56dc:	c8f1c683          	lbu	a3,-881(gp) # 2000050f <USBHS_SetupReqCode>
    56e0:	4625                	li	a2,9
    56e2:	16f9                	addi	a3,a3,-2
    56e4:	0ff6f693          	andi	a3,a3,255
    56e8:	2ed66563          	bltu	a2,a3,59d2 <USBHS_IRQHandler+0x504>
    56ec:	6621                	lui	a2,0x8
    56ee:	068a                	slli	a3,a3,0x2
    56f0:	82060613          	addi	a2,a2,-2016 # 7820 <_read+0xc>
    56f4:	96b2                	add	a3,a3,a2
    56f6:	4294                	lw	a3,0(a3)
    56f8:	8682                	jr	a3
    56fa:	c8c1d683          	lhu	a3,-884(gp) # 2000050c <USBHS_SetupReqIndex>
    56fe:	06c2                	slli	a3,a3,0x10
    5700:	82c1                	srli	a3,a3,0x10
    5702:	e6a9                	bnez	a3,574c <USBHS_IRQHandler+0x27e>
    5704:	c8a1d783          	lhu	a5,-886(gp) # 2000050a <USBHS_SetupReqValue>
    5708:	83a1                	srli	a5,a5,0x8
    570a:	c8f18a23          	sb	a5,-876(gp) # 20000514 <USBHS_HidIdle>
    570e:	c891c783          	lbu	a5,-887(gp) # 20000509 <USBHS_SetupReqType>
    5712:	c901d703          	lhu	a4,-880(gp) # 20000510 <USBHS_SetupReqLen>
    5716:	07e2                	slli	a5,a5,0x18
    5718:	87e1                	srai	a5,a5,0x18
    571a:	4007db63          	bgez	a5,5b30 <USBHS_IRQHandler+0x662>
    571e:	04000793          	li	a5,64
    5722:	00e7e663          	bltu	a5,a4,572e <USBHS_IRQHandler+0x260>
    5726:	c901d783          	lhu	a5,-880(gp) # 20000510 <USBHS_SetupReqLen>
    572a:	07c2                	slli	a5,a5,0x10
    572c:	83c1                	srli	a5,a5,0x10
    572e:	c901d703          	lhu	a4,-880(gp) # 20000510 <USBHS_SetupReqLen>
    5732:	8f1d                	sub	a4,a4,a5
    5734:	0742                	slli	a4,a4,0x10
    5736:	8341                	srli	a4,a4,0x10
    5738:	c8e19823          	sh	a4,-880(gp) # 20000510 <USBHS_SetupReqLen>
    573c:	40023737          	lui	a4,0x40023
    5740:	4cf71c23          	sh	a5,1240(a4) # 400234d8 <_eusrstack+0x2001b4d8>
    5744:	47a1                	li	a5,8
    5746:	4cf70d23          	sb	a5,1242(a4)
    574a:	ac59                	j	59e0 <USBHS_IRQHandler+0x512>
    574c:	c8c1d783          	lhu	a5,-884(gp) # 2000050c <USBHS_SetupReqIndex>
    5750:	4685                	li	a3,1
    5752:	28f69063          	bne	a3,a5,59d2 <USBHS_IRQHandler+0x504>
    5756:	c8a1d703          	lhu	a4,-886(gp) # 2000050a <USBHS_SetupReqValue>
    575a:	c9418793          	addi	a5,gp,-876 # 20000514 <USBHS_HidIdle>
    575e:	8321                	srli	a4,a4,0x8
    5760:	00e780a3          	sb	a4,1(a5)
    5764:	b76d                	j	570e <USBHS_IRQHandler+0x240>
    5766:	c8c1d683          	lhu	a3,-884(gp) # 2000050c <USBHS_SetupReqIndex>
    576a:	06c2                	slli	a3,a3,0x10
    576c:	82c1                	srli	a3,a3,0x10
    576e:	ea81                	bnez	a3,577e <USBHS_IRQHandler+0x2b0>
    5770:	c8a1d783          	lhu	a5,-886(gp) # 2000050a <USBHS_SetupReqValue>
    5774:	0ff7f793          	andi	a5,a5,255
    5778:	a4f18223          	sb	a5,-1468(gp) # 200002c4 <USBHS_HidProtocol>
    577c:	bf49                	j	570e <USBHS_IRQHandler+0x240>
    577e:	c8c1d783          	lhu	a5,-884(gp) # 2000050c <USBHS_SetupReqIndex>
    5782:	4685                	li	a3,1
    5784:	24f69763          	bne	a3,a5,59d2 <USBHS_IRQHandler+0x504>
    5788:	c8a1d703          	lhu	a4,-886(gp) # 2000050a <USBHS_SetupReqValue>
    578c:	a4418793          	addi	a5,gp,-1468 # 200002c4 <USBHS_HidProtocol>
    5790:	0ff77713          	andi	a4,a4,255
    5794:	b7f1                	j	5760 <USBHS_IRQHandler+0x292>
    5796:	c8c1d703          	lhu	a4,-884(gp) # 2000050c <USBHS_SetupReqIndex>
    579a:	0742                	slli	a4,a4,0x10
    579c:	8341                	srli	a4,a4,0x10
    579e:	e711                	bnez	a4,57aa <USBHS_IRQHandler+0x2dc>
    57a0:	c941c783          	lbu	a5,-876(gp) # 20000514 <USBHS_HidIdle>
    57a4:	c4f18423          	sb	a5,-952(gp) # 200004c8 <USBHS_EP0_Buf>
    57a8:	b79d                	j	570e <USBHS_IRQHandler+0x240>
    57aa:	c8c1d783          	lhu	a5,-884(gp) # 2000050c <USBHS_SetupReqIndex>
    57ae:	4705                	li	a4,1
    57b0:	22f71163          	bne	a4,a5,59d2 <USBHS_IRQHandler+0x504>
    57b4:	c9418793          	addi	a5,gp,-876 # 20000514 <USBHS_HidIdle>
    57b8:	0017c783          	lbu	a5,1(a5)
    57bc:	b7e5                	j	57a4 <USBHS_IRQHandler+0x2d6>
    57be:	c8c1d703          	lhu	a4,-884(gp) # 2000050c <USBHS_SetupReqIndex>
    57c2:	0742                	slli	a4,a4,0x10
    57c4:	8341                	srli	a4,a4,0x10
    57c6:	e701                	bnez	a4,57ce <USBHS_IRQHandler+0x300>
    57c8:	a441c783          	lbu	a5,-1468(gp) # 200002c4 <USBHS_HidProtocol>
    57cc:	bfe1                	j	57a4 <USBHS_IRQHandler+0x2d6>
    57ce:	c8c1d783          	lhu	a5,-884(gp) # 2000050c <USBHS_SetupReqIndex>
    57d2:	4705                	li	a4,1
    57d4:	1ef71f63          	bne	a4,a5,59d2 <USBHS_IRQHandler+0x504>
    57d8:	a4418793          	addi	a5,gp,-1468 # 200002c4 <USBHS_HidProtocol>
    57dc:	bff1                	j	57b8 <USBHS_IRQHandler+0x2ea>
    57de:	c8f1c683          	lbu	a3,-881(gp) # 2000050f <USBHS_SetupReqCode>
    57e2:	462d                	li	a2,11
    57e4:	0ff6f693          	andi	a3,a3,255
    57e8:	1ed66563          	bltu	a2,a3,59d2 <USBHS_IRQHandler+0x504>
    57ec:	6621                	lui	a2,0x8
    57ee:	068a                	slli	a3,a3,0x2
    57f0:	84860613          	addi	a2,a2,-1976 # 7848 <_read+0x34>
    57f4:	96b2                	add	a3,a3,a2
    57f6:	4294                	lw	a3,0(a3)
    57f8:	8682                	jr	a3
    57fa:	c8a1d683          	lhu	a3,-886(gp) # 2000050a <USBHS_SetupReqValue>
    57fe:	460d                	li	a2,3
    5800:	82a1                	srli	a3,a3,0x8
    5802:	10c68963          	beq	a3,a2,5914 <USBHS_IRQHandler+0x446>
    5806:	00d66c63          	bltu	a2,a3,581e <USBHS_IRQHandler+0x350>
    580a:	4785                	li	a5,1
    580c:	02f68c63          	beq	a3,a5,5844 <USBHS_IRQHandler+0x376>
    5810:	4789                	li	a5,2
    5812:	08f68463          	beq	a3,a5,589a <USBHS_IRQHandler+0x3cc>
    5816:	4781                	li	a5,0
    5818:	0ff00413          	li	s0,255
    581c:	a825                	j	5854 <USBHS_IRQHandler+0x386>
    581e:	02100713          	li	a4,33
    5822:	08e68a63          	beq	a3,a4,58b6 <USBHS_IRQHandler+0x3e8>
    5826:	02200713          	li	a4,34
    582a:	0ae68b63          	beq	a3,a4,58e0 <USBHS_IRQHandler+0x412>
    582e:	4799                	li	a5,6
    5830:	fef693e3          	bne	a3,a5,5816 <USBHS_IRQHandler+0x348>
    5834:	67a1                	lui	a5,0x8
    5836:	9d878713          	addi	a4,a5,-1576 # 79d8 <MyQuaDesc>
    583a:	a4e1a023          	sw	a4,-1472(gp) # 200002c0 <pUSBHS_Descr>
    583e:	9d87c783          	lbu	a5,-1576(a5)
    5842:	a801                	j	5852 <USBHS_IRQHandler+0x384>
    5844:	67a1                	lui	a5,0x8
    5846:	99c78713          	addi	a4,a5,-1636 # 799c <MyDevDescr>
    584a:	99c7c783          	lbu	a5,-1636(a5)
    584e:	a4e1a023          	sw	a4,-1472(gp) # 200002c0 <pUSBHS_Descr>
    5852:	4401                	li	s0,0
    5854:	c901d703          	lhu	a4,-880(gp) # 20000510 <USBHS_SetupReqLen>
    5858:	00e7f463          	bgeu	a5,a4,5860 <USBHS_IRQHandler+0x392>
    585c:	c8f19823          	sh	a5,-880(gp) # 20000510 <USBHS_SetupReqLen>
    5860:	c901d783          	lhu	a5,-880(gp) # 20000510 <USBHS_SetupReqLen>
    5864:	03f00713          	li	a4,63
    5868:	04000a13          	li	s4,64
    586c:	00f76763          	bltu	a4,a5,587a <USBHS_IRQHandler+0x3ac>
    5870:	c901da03          	lhu	s4,-880(gp) # 20000510 <USBHS_SetupReqLen>
    5874:	0a42                	slli	s4,s4,0x10
    5876:	010a5a13          	srli	s4,s4,0x10
    587a:	a401aa83          	lw	s5,-1472(gp) # 200002c0 <pUSBHS_Descr>
    587e:	8652                	mv	a2,s4
    5880:	c4818513          	addi	a0,gp,-952 # 200004c8 <USBHS_EP0_Buf>
    5884:	85d6                	mv	a1,s5
    5886:	9a56                	add	s4,s4,s5
    5888:	3e0010ef          	jal	ra,6c68 <memcpy>
    588c:	a541a023          	sw	s4,-1472(gp) # 200002c0 <pUSBHS_Descr>
    5890:	0ff00793          	li	a5,255
    5894:	e6f41de3          	bne	s0,a5,570e <USBHS_IRQHandler+0x240>
    5898:	aa2d                	j	59d2 <USBHS_IRQHandler+0x504>
    589a:	6721                	lui	a4,0x8
    589c:	96070713          	addi	a4,a4,-1696 # 7960 <MyCfgDescr>
    58a0:	00374783          	lbu	a5,3(a4)
    58a4:	a4e1a023          	sw	a4,-1472(gp) # 200002c0 <pUSBHS_Descr>
    58a8:	00274703          	lbu	a4,2(a4)
    58ac:	07a2                	slli	a5,a5,0x8
    58ae:	97ba                	add	a5,a5,a4
    58b0:	07c2                	slli	a5,a5,0x10
    58b2:	83c1                	srli	a5,a5,0x10
    58b4:	bf79                	j	5852 <USBHS_IRQHandler+0x384>
    58b6:	c8c1d703          	lhu	a4,-884(gp) # 2000050c <USBHS_SetupReqIndex>
    58ba:	0742                	slli	a4,a4,0x10
    58bc:	8341                	srli	a4,a4,0x10
    58be:	eb01                	bnez	a4,58ce <USBHS_IRQHandler+0x400>
    58c0:	67a1                	lui	a5,0x8
    58c2:	97278793          	addi	a5,a5,-1678 # 7972 <MyCfgDescr+0x12>
    58c6:	a4f1a023          	sw	a5,-1472(gp) # 200002c0 <pUSBHS_Descr>
    58ca:	47a5                	li	a5,9
    58cc:	b759                	j	5852 <USBHS_IRQHandler+0x384>
    58ce:	c8c1d783          	lhu	a5,-884(gp) # 2000050c <USBHS_SetupReqIndex>
    58d2:	4705                	li	a4,1
    58d4:	f4f711e3          	bne	a4,a5,5816 <USBHS_IRQHandler+0x348>
    58d8:	67a1                	lui	a5,0x8
    58da:	98b78793          	addi	a5,a5,-1653 # 798b <MyCfgDescr+0x2b>
    58de:	b7e5                	j	58c6 <USBHS_IRQHandler+0x3f8>
    58e0:	c8c1d703          	lhu	a4,-884(gp) # 2000050c <USBHS_SetupReqIndex>
    58e4:	0742                	slli	a4,a4,0x10
    58e6:	8341                	srli	a4,a4,0x10
    58e8:	eb09                	bnez	a4,58fa <USBHS_IRQHandler+0x42c>
    58ea:	67a1                	lui	a5,0x8
    58ec:	8d878793          	addi	a5,a5,-1832 # 78d8 <KeyRepDesc>
    58f0:	a4f1a023          	sw	a5,-1472(gp) # 200002c0 <pUSBHS_Descr>
    58f4:	03500793          	li	a5,53
    58f8:	bfa9                	j	5852 <USBHS_IRQHandler+0x384>
    58fa:	c8c1d783          	lhu	a5,-884(gp) # 2000050c <USBHS_SetupReqIndex>
    58fe:	4705                	li	a4,1
    5900:	f0f71be3          	bne	a4,a5,5816 <USBHS_IRQHandler+0x348>
    5904:	67a1                	lui	a5,0x8
    5906:	91078793          	addi	a5,a5,-1776 # 7910 <MediaRepDesc>
    590a:	a4f1a023          	sw	a5,-1472(gp) # 200002c0 <pUSBHS_Descr>
    590e:	05000793          	li	a5,80
    5912:	b781                	j	5852 <USBHS_IRQHandler+0x384>
    5914:	c8a1d783          	lhu	a5,-886(gp) # 2000050a <USBHS_SetupReqValue>
    5918:	4705                	li	a4,1
    591a:	0ff7f793          	andi	a5,a5,255
    591e:	02e78763          	beq	a5,a4,594c <USBHS_IRQHandler+0x47e>
    5922:	cf91                	beqz	a5,593e <USBHS_IRQHandler+0x470>
    5924:	4709                	li	a4,2
    5926:	02e78b63          	beq	a5,a4,595c <USBHS_IRQHandler+0x48e>
    592a:	eed796e3          	bne	a5,a3,5816 <USBHS_IRQHandler+0x348>
    592e:	67a1                	lui	a5,0x8
    5930:	9e478713          	addi	a4,a5,-1564 # 79e4 <MySerNumInfo>
    5934:	a4e1a023          	sw	a4,-1472(gp) # 200002c0 <pUSBHS_Descr>
    5938:	9e47c783          	lbu	a5,-1564(a5)
    593c:	bf19                	j	5852 <USBHS_IRQHandler+0x384>
    593e:	81818713          	addi	a4,gp,-2024 # 20000098 <MyLangDescr>
    5942:	a4e1a023          	sw	a4,-1472(gp) # 200002c0 <pUSBHS_Descr>
    5946:	8181c783          	lbu	a5,-2024(gp) # 20000098 <MyLangDescr>
    594a:	b721                	j	5852 <USBHS_IRQHandler+0x384>
    594c:	67a1                	lui	a5,0x8
    594e:	9b078713          	addi	a4,a5,-1616 # 79b0 <MyManuInfo>
    5952:	a4e1a023          	sw	a4,-1472(gp) # 200002c0 <pUSBHS_Descr>
    5956:	9b07c783          	lbu	a5,-1616(a5)
    595a:	bde5                	j	5852 <USBHS_IRQHandler+0x384>
    595c:	67a1                	lui	a5,0x8
    595e:	9c478713          	addi	a4,a5,-1596 # 79c4 <MyProdInfo>
    5962:	a4e1a023          	sw	a4,-1472(gp) # 200002c0 <pUSBHS_Descr>
    5966:	9c47c783          	lbu	a5,-1596(a5)
    596a:	b5e5                	j	5852 <USBHS_IRQHandler+0x384>
    596c:	c8a1d783          	lhu	a5,-886(gp) # 2000050a <USBHS_SetupReqValue>
    5970:	0ff7f793          	andi	a5,a5,255
    5974:	c8f18723          	sb	a5,-882(gp) # 2000050e <USBHS_DevAddr>
    5978:	bb59                	j	570e <USBHS_IRQHandler+0x240>
    597a:	c881c783          	lbu	a5,-888(gp) # 20000508 <USBHS_DevConfig>
    597e:	c4f18423          	sb	a5,-952(gp) # 200004c8 <USBHS_EP0_Buf>
    5982:	c901d703          	lhu	a4,-880(gp) # 20000510 <USBHS_SetupReqLen>
    5986:	4785                	li	a5,1
    5988:	d8e7f3e3          	bgeu	a5,a4,570e <USBHS_IRQHandler+0x240>
    598c:	c8f19823          	sh	a5,-880(gp) # 20000510 <USBHS_SetupReqLen>
    5990:	bbbd                	j	570e <USBHS_IRQHandler+0x240>
    5992:	c8a1d783          	lhu	a5,-886(gp) # 2000050a <USBHS_SetupReqValue>
    5996:	0ff7f793          	andi	a5,a5,255
    599a:	c8f18423          	sb	a5,-888(gp) # 20000508 <USBHS_DevConfig>
    599e:	4705                	li	a4,1
    59a0:	c8e18b23          	sb	a4,-874(gp) # 20000516 <USBHS_DevEnumStatus>
    59a4:	b3ad                	j	570e <USBHS_IRQHandler+0x240>
    59a6:	c891c683          	lbu	a3,-887(gp) # 20000509 <USBHS_SetupReqType>
    59aa:	4609                	li	a2,2
    59ac:	8afd                	andi	a3,a3,31
    59ae:	04c69463          	bne	a3,a2,59f6 <USBHS_IRQHandler+0x528>
    59b2:	c8c1d703          	lhu	a4,-884(gp) # 2000050c <USBHS_SetupReqIndex>
    59b6:	08100613          	li	a2,129
    59ba:	400237b7          	lui	a5,0x40023
    59be:	0ff77713          	andi	a4,a4,255
    59c2:	40078793          	addi	a5,a5,1024 # 40023400 <_eusrstack+0x2001b400>
    59c6:	02c70263          	beq	a4,a2,59ea <USBHS_IRQHandler+0x51c>
    59ca:	08200613          	li	a2,130
    59ce:	02c70163          	beq	a4,a2,59f0 <USBHS_IRQHandler+0x522>
    59d2:	400237b7          	lui	a5,0x40023
    59d6:	472d                	li	a4,11
    59d8:	4ce78d23          	sb	a4,1242(a5) # 400234da <_eusrstack+0x2001b4da>
    59dc:	4ce78da3          	sb	a4,1243(a5)
    59e0:	400237b7          	lui	a5,0x40023
    59e4:	02000713          	li	a4,32
    59e8:	bec9                	j	55ba <USBHS_IRQHandler+0xec>
    59ea:	0cd78f23          	sb	a3,222(a5) # 400230de <_eusrstack+0x2001b0de>
    59ee:	b305                	j	570e <USBHS_IRQHandler+0x240>
    59f0:	0ed78123          	sb	a3,226(a5)
    59f4:	bb29                	j	570e <USBHS_IRQHandler+0x240>
    59f6:	c891c783          	lbu	a5,-887(gp) # 20000509 <USBHS_SetupReqType>
    59fa:	8bfd                	andi	a5,a5,31
    59fc:	fbf9                	bnez	a5,59d2 <USBHS_IRQHandler+0x504>
    59fe:	c8a1d783          	lhu	a5,-886(gp) # 2000050a <USBHS_SetupReqValue>
    5a02:	4705                	li	a4,1
    5a04:	0ff7f793          	andi	a5,a5,255
    5a08:	d0e793e3          	bne	a5,a4,570e <USBHS_IRQHandler+0x240>
    5a0c:	c921c783          	lbu	a5,-878(gp) # 20000512 <USBHS_DevSleepStatus>
    5a10:	0fe7f793          	andi	a5,a5,254
    5a14:	c8f18923          	sb	a5,-878(gp) # 20000512 <USBHS_DevSleepStatus>
    5a18:	b9dd                	j	570e <USBHS_IRQHandler+0x240>
    5a1a:	c891c683          	lbu	a3,-887(gp) # 20000509 <USBHS_SetupReqType>
    5a1e:	8afd                	andi	a3,a3,31
    5a20:	e29d                	bnez	a3,5a46 <USBHS_IRQHandler+0x578>
    5a22:	c8a1d783          	lhu	a5,-886(gp) # 2000050a <USBHS_SetupReqValue>
    5a26:	4705                	li	a4,1
    5a28:	0ff7f793          	andi	a5,a5,255
    5a2c:	fae793e3          	bne	a5,a4,59d2 <USBHS_IRQHandler+0x504>
    5a30:	67a1                	lui	a5,0x8
    5a32:	9677c783          	lbu	a5,-1689(a5) # 7967 <MyCfgDescr+0x7>
    5a36:	0207f793          	andi	a5,a5,32
    5a3a:	dfc1                	beqz	a5,59d2 <USBHS_IRQHandler+0x504>
    5a3c:	c921c783          	lbu	a5,-878(gp) # 20000512 <USBHS_DevSleepStatus>
    5a40:	0017e793          	ori	a5,a5,1
    5a44:	bfc1                	j	5a14 <USBHS_IRQHandler+0x546>
    5a46:	c891c683          	lbu	a3,-887(gp) # 20000509 <USBHS_SetupReqType>
    5a4a:	4609                	li	a2,2
    5a4c:	8afd                	andi	a3,a3,31
    5a4e:	f8c692e3          	bne	a3,a2,59d2 <USBHS_IRQHandler+0x504>
    5a52:	c8a1d703          	lhu	a4,-886(gp) # 2000050a <USBHS_SetupReqValue>
    5a56:	0ff77713          	andi	a4,a4,255
    5a5a:	ff25                	bnez	a4,59d2 <USBHS_IRQHandler+0x504>
    5a5c:	c8c1d703          	lhu	a4,-884(gp) # 2000050c <USBHS_SetupReqIndex>
    5a60:	08100693          	li	a3,129
    5a64:	400237b7          	lui	a5,0x40023
    5a68:	0ff77713          	andi	a4,a4,255
    5a6c:	40078793          	addi	a5,a5,1024 # 40023400 <_eusrstack+0x2001b400>
    5a70:	00d70d63          	beq	a4,a3,5a8a <USBHS_IRQHandler+0x5bc>
    5a74:	08200693          	li	a3,130
    5a78:	f4d71de3          	bne	a4,a3,59d2 <USBHS_IRQHandler+0x504>
    5a7c:	0e27c703          	lbu	a4,226(a5)
    5a80:	00376713          	ori	a4,a4,3
    5a84:	0ee78123          	sb	a4,226(a5)
    5a88:	b159                	j	570e <USBHS_IRQHandler+0x240>
    5a8a:	0de7c703          	lbu	a4,222(a5)
    5a8e:	00376713          	ori	a4,a4,3
    5a92:	0ce78f23          	sb	a4,222(a5)
    5a96:	b9a5                	j	570e <USBHS_IRQHandler+0x240>
    5a98:	c4018423          	sb	zero,-952(gp) # 200004c8 <USBHS_EP0_Buf>
    5a9c:	b5dd                	j	5982 <USBHS_IRQHandler+0x4b4>
    5a9e:	c891c703          	lbu	a4,-887(gp) # 20000509 <USBHS_SetupReqType>
    5aa2:	c4019423          	sh	zero,-952(gp) # 200004c8 <USBHS_EP0_Buf>
    5aa6:	8b7d                	andi	a4,a4,31
    5aa8:	e30d                	bnez	a4,5aca <USBHS_IRQHandler+0x5fc>
    5aaa:	c921c783          	lbu	a5,-878(gp) # 20000512 <USBHS_DevSleepStatus>
    5aae:	4401                	li	s0,0
    5ab0:	8b85                	andi	a5,a5,1
    5ab2:	c781                	beqz	a5,5aba <USBHS_IRQHandler+0x5ec>
    5ab4:	4789                	li	a5,2
    5ab6:	c4f18423          	sb	a5,-952(gp) # 200004c8 <USBHS_EP0_Buf>
    5aba:	c901d703          	lhu	a4,-880(gp) # 20000510 <USBHS_SetupReqLen>
    5abe:	4789                	li	a5,2
    5ac0:	dce7f8e3          	bgeu	a5,a4,5890 <USBHS_IRQHandler+0x3c2>
    5ac4:	c8f19823          	sh	a5,-880(gp) # 20000510 <USBHS_SetupReqLen>
    5ac8:	b3e1                	j	5890 <USBHS_IRQHandler+0x3c2>
    5aca:	c891c703          	lbu	a4,-887(gp) # 20000509 <USBHS_SetupReqType>
    5ace:	4689                	li	a3,2
    5ad0:	0ff00413          	li	s0,255
    5ad4:	8b7d                	andi	a4,a4,31
    5ad6:	fed712e3          	bne	a4,a3,5aba <USBHS_IRQHandler+0x5ec>
    5ada:	c8c1d703          	lhu	a4,-884(gp) # 2000050c <USBHS_SetupReqIndex>
    5ade:	08100693          	li	a3,129
    5ae2:	0ff77713          	andi	a4,a4,255
    5ae6:	02d71263          	bne	a4,a3,5b0a <USBHS_IRQHandler+0x63c>
    5aea:	400237b7          	lui	a5,0x40023
    5aee:	40078793          	addi	a5,a5,1024 # 40023400 <_eusrstack+0x2001b400>
    5af2:	0de7c783          	lbu	a5,222(a5)
    5af6:	470d                	li	a4,3
    5af8:	4401                	li	s0,0
    5afa:	8b8d                	andi	a5,a5,3
    5afc:	fae79fe3          	bne	a5,a4,5aba <USBHS_IRQHandler+0x5ec>
    5b00:	4785                	li	a5,1
    5b02:	c4f18423          	sb	a5,-952(gp) # 200004c8 <USBHS_EP0_Buf>
    5b06:	4401                	li	s0,0
    5b08:	bf4d                	j	5aba <USBHS_IRQHandler+0x5ec>
    5b0a:	c8c1d783          	lhu	a5,-884(gp) # 2000050c <USBHS_SetupReqIndex>
    5b0e:	08200713          	li	a4,130
    5b12:	0ff7f793          	andi	a5,a5,255
    5b16:	fae792e3          	bne	a5,a4,5aba <USBHS_IRQHandler+0x5ec>
    5b1a:	400237b7          	lui	a5,0x40023
    5b1e:	40078793          	addi	a5,a5,1024 # 40023400 <_eusrstack+0x2001b400>
    5b22:	0e27c783          	lbu	a5,226(a5)
    5b26:	470d                	li	a4,3
    5b28:	8b8d                	andi	a5,a5,3
    5b2a:	fce79ee3          	bne	a5,a4,5b06 <USBHS_IRQHandler+0x638>
    5b2e:	bfc9                	j	5b00 <USBHS_IRQHandler+0x632>
    5b30:	0742                	slli	a4,a4,0x10
    5b32:	400237b7          	lui	a5,0x40023
    5b36:	8341                	srli	a4,a4,0x10
    5b38:	40078793          	addi	a5,a5,1024 # 40023400 <_eusrstack+0x2001b400>
    5b3c:	e719                	bnez	a4,5b4a <USBHS_IRQHandler+0x67c>
    5b3e:	0c079c23          	sh	zero,216(a5)
    5b42:	4721                	li	a4,8
    5b44:	0ce78d23          	sb	a4,218(a5)
    5b48:	bd61                	j	59e0 <USBHS_IRQHandler+0x512>
    5b4a:	4721                	li	a4,8
    5b4c:	0ce78da3          	sb	a4,219(a5)
    5b50:	bd41                	j	59e0 <USBHS_IRQHandler+0x512>
    5b52:	00177793          	andi	a5,a4,1
    5b56:	c38d                	beqz	a5,5b78 <USBHS_IRQHandler+0x6aa>
    5b58:	c8018423          	sb	zero,-888(gp) # 20000508 <USBHS_DevConfig>
    5b5c:	c8018723          	sb	zero,-882(gp) # 2000050e <USBHS_DevAddr>
    5b60:	c8018923          	sb	zero,-878(gp) # 20000512 <USBHS_DevSleepStatus>
    5b64:	c8018b23          	sb	zero,-874(gp) # 20000516 <USBHS_DevEnumStatus>
    5b68:	000401a3          	sb	zero,3(s0)
    5b6c:	f74ff0ef          	jal	ra,52e0 <USBHS_Device_Endp_Init>
    5b70:	4785                	li	a5,1
    5b72:	00f40523          	sb	a5,10(s0)
    5b76:	b4b1                	j	55c2 <USBHS_IRQHandler+0xf4>
    5b78:	00477793          	andi	a5,a4,4
    5b7c:	cf8d                	beqz	a5,5bb6 <USBHS_IRQHandler+0x6e8>
    5b7e:	4791                	li	a5,4
    5b80:	00f40523          	sb	a5,10(s0)
    5b84:	00944703          	lbu	a4,9(s0)
    5b88:	8b11                	andi	a4,a4,4
    5b8a:	cf19                	beqz	a4,5ba8 <USBHS_IRQHandler+0x6da>
    5b8c:	c921c703          	lbu	a4,-878(gp) # 20000512 <USBHS_DevSleepStatus>
    5b90:	00276713          	ori	a4,a4,2
    5b94:	c8e18923          	sb	a4,-878(gp) # 20000512 <USBHS_DevSleepStatus>
    5b98:	c921c783          	lbu	a5,-878(gp) # 20000512 <USBHS_DevSleepStatus>
    5b9c:	470d                	li	a4,3
    5b9e:	a2f712e3          	bne	a4,a5,55c2 <USBHS_IRQHandler+0xf4>
    5ba2:	6a0000ef          	jal	ra,6242 <MCU_Sleep_Wakeup_Operate>
    5ba6:	bc31                	j	55c2 <USBHS_IRQHandler+0xf4>
    5ba8:	c921c703          	lbu	a4,-878(gp) # 20000512 <USBHS_DevSleepStatus>
    5bac:	0fd77713          	andi	a4,a4,253
    5bb0:	c8e18923          	sb	a4,-878(gp) # 20000512 <USBHS_DevSleepStatus>
    5bb4:	b439                	j	55c2 <USBHS_IRQHandler+0xf4>
    5bb6:	00e40523          	sb	a4,10(s0)
    5bba:	b421                	j	55c2 <USBHS_IRQHandler+0xf4>

00005bbc <USBHS_Send_Resume>:
    5bbc:	1141                	addi	sp,sp,-16
    5bbe:	c422                	sw	s0,8(sp)
    5bc0:	c606                	sw	ra,12(sp)
    5bc2:	40023437          	lui	s0,0x40023
    5bc6:	40144783          	lbu	a5,1025(s0) # 40023401 <_eusrstack+0x2001b401>
    5bca:	4515                	li	a0,5
    5bcc:	0087e793          	ori	a5,a5,8
    5bd0:	40f400a3          	sb	a5,1025(s0)
    5bd4:	795000ef          	jal	ra,6b68 <Delay_Ms>
    5bd8:	40144783          	lbu	a5,1025(s0)
    5bdc:	4505                	li	a0,1
    5bde:	0f77f793          	andi	a5,a5,247
    5be2:	40f400a3          	sb	a5,1025(s0)
    5be6:	4422                	lw	s0,8(sp)
    5be8:	40b2                	lw	ra,12(sp)
    5bea:	0141                	addi	sp,sp,16
    5bec:	77d0006f          	j	6b68 <Delay_Ms>

00005bf0 <main>:
    5bf0:	1141                	addi	sp,sp,-16
    5bf2:	c606                	sw	ra,12(sp)
    5bf4:	2a9d                	jal	5d6a <SystemCoreClockUpdate>
    5bf6:	4509                	li	a0,2
    5bf8:	1cd000ef          	jal	ra,65c4 <NVIC_PriorityGroupConfig>
    5bfc:	70d000ef          	jal	ra,6b08 <Delay_Init>
    5c00:	6571                	lui	a0,0x1c
    5c02:	20050513          	addi	a0,a0,512 # 1c200 <_data_lma+0x147a4>
    5c06:	799000ef          	jal	ra,6b9e <USART_Printf_Init>
    5c0a:	00008537          	lui	a0,0x8
    5c0e:	87850513          	addi	a0,a0,-1928 # 7878 <_read+0x64>
    5c12:	1e6010ef          	jal	ra,6df8 <puts>
    5c16:	2cbd                	jal	5e94 <KB_Scan_Init>
    5c18:	2ce1                	jal	5ef0 <KB_Sleep_Wakeup_Cfg>
    5c1a:	00008537          	lui	a0,0x8
    5c1e:	89450513          	addi	a0,a0,-1900 # 7894 <_read+0x80>
    5c22:	1d6010ef          	jal	ra,6df8 <puts>
    5c26:	2321                	jal	612e <LED_Init>
    5c28:	00008537          	lui	a0,0x8
    5c2c:	8a850513          	addi	a0,a0,-1880 # 78a8 <_read+0x94>
    5c30:	1c8010ef          	jal	ra,6df8 <puts>
    5c34:	200007b7          	lui	a5,0x20000
    5c38:	0807a583          	lw	a1,128(a5) # 20000080 <SystemCoreClock>
    5c3c:	6785                	lui	a5,0x1
    5c3e:	96078793          	addi	a5,a5,-1696 # 960 <__stack_size+0x160>
    5c42:	02f5d5b3          	divu	a1,a1,a5
    5c46:	4505                	li	a0,1
    5c48:	15fd                	addi	a1,a1,-1
    5c4a:	22c5                	jal	5e2a <TIM3_Init>
    5c4c:	00008537          	lui	a0,0x8
    5c50:	8b850513          	addi	a0,a0,-1864 # 78b8 <_read+0xa4>
    5c54:	1a4010ef          	jal	ra,6df8 <puts>
    5c58:	e56ff0ef          	jal	ra,52ae <USBHS_RCC_Init>
    5c5c:	4505                	li	a0,1
    5c5e:	ed2ff0ef          	jal	ra,5330 <USBHS_Device_Init>
    5c62:	23c1                	jal	6222 <USB_Sleep_Wakeup_CFG>
    5c64:	45b1                	li	a1,12
    5c66:	40011537          	lui	a0,0x40011
    5c6a:	12b000ef          	jal	ra,6594 <GPIO_Write>
    5c6e:	2b79                	jal	620c <KB_Schedule>
    5c70:	bffd                	j	5c6e <main+0x7e>

00005c72 <SystemInit>:
    5c72:	400217b7          	lui	a5,0x40021
    5c76:	4398                	lw	a4,0(a5)
    5c78:	f8ff06b7          	lui	a3,0xf8ff0
    5c7c:	1141                	addi	sp,sp,-16
    5c7e:	00176713          	ori	a4,a4,1
    5c82:	c398                	sw	a4,0(a5)
    5c84:	43d8                	lw	a4,4(a5)
    5c86:	00020637          	lui	a2,0x20
    5c8a:	8f75                	and	a4,a4,a3
    5c8c:	c3d8                	sw	a4,4(a5)
    5c8e:	4398                	lw	a4,0(a5)
    5c90:	fef706b7          	lui	a3,0xfef70
    5c94:	16fd                	addi	a3,a3,-1
    5c96:	8f75                	and	a4,a4,a3
    5c98:	c398                	sw	a4,0(a5)
    5c9a:	4398                	lw	a4,0(a5)
    5c9c:	fffc06b7          	lui	a3,0xfffc0
    5ca0:	16fd                	addi	a3,a3,-1
    5ca2:	8f75                	and	a4,a4,a3
    5ca4:	c398                	sw	a4,0(a5)
    5ca6:	43d8                	lw	a4,4(a5)
    5ca8:	ff8106b7          	lui	a3,0xff810
    5cac:	16fd                	addi	a3,a3,-1
    5cae:	8f75                	and	a4,a4,a3
    5cb0:	c3d8                	sw	a4,4(a5)
    5cb2:	4398                	lw	a4,0(a5)
    5cb4:	ec0006b7          	lui	a3,0xec000
    5cb8:	16fd                	addi	a3,a3,-1
    5cba:	8f75                	and	a4,a4,a3
    5cbc:	c398                	sw	a4,0(a5)
    5cbe:	00ff0737          	lui	a4,0xff0
    5cc2:	c798                	sw	a4,8(a5)
    5cc4:	0207a623          	sw	zero,44(a5) # 4002102c <_eusrstack+0x2001902c>
    5cc8:	c402                	sw	zero,8(sp)
    5cca:	c602                	sw	zero,12(sp)
    5ccc:	4398                	lw	a4,0(a5)
    5cce:	66c1                	lui	a3,0x10
    5cd0:	8f55                	or	a4,a4,a3
    5cd2:	c398                	sw	a4,0(a5)
    5cd4:	400216b7          	lui	a3,0x40021
    5cd8:	6705                	lui	a4,0x1
    5cda:	429c                	lw	a5,0(a3)
    5cdc:	8ff1                	and	a5,a5,a2
    5cde:	c63e                	sw	a5,12(sp)
    5ce0:	47a2                	lw	a5,8(sp)
    5ce2:	0785                	addi	a5,a5,1
    5ce4:	c43e                	sw	a5,8(sp)
    5ce6:	47b2                	lw	a5,12(sp)
    5ce8:	e781                	bnez	a5,5cf0 <SystemInit+0x7e>
    5cea:	47a2                	lw	a5,8(sp)
    5cec:	fee797e3          	bne	a5,a4,5cda <SystemInit+0x68>
    5cf0:	400217b7          	lui	a5,0x40021
    5cf4:	439c                	lw	a5,0(a5)
    5cf6:	00e79713          	slli	a4,a5,0xe
    5cfa:	06075663          	bgez	a4,5d66 <SystemInit+0xf4>
    5cfe:	4785                	li	a5,1
    5d00:	c63e                	sw	a5,12(sp)
    5d02:	4732                	lw	a4,12(sp)
    5d04:	4785                	li	a5,1
    5d06:	04f71e63          	bne	a4,a5,5d62 <SystemInit+0xf0>
    5d0a:	400217b7          	lui	a5,0x40021
    5d0e:	43d8                	lw	a4,4(a5)
    5d10:	ffc106b7          	lui	a3,0xffc10
    5d14:	16fd                	addi	a3,a3,-1
    5d16:	c3d8                	sw	a4,4(a5)
    5d18:	43d8                	lw	a4,4(a5)
    5d1a:	c3d8                	sw	a4,4(a5)
    5d1c:	43d8                	lw	a4,4(a5)
    5d1e:	40076713          	ori	a4,a4,1024
    5d22:	c3d8                	sw	a4,4(a5)
    5d24:	43d8                	lw	a4,4(a5)
    5d26:	8f75                	and	a4,a4,a3
    5d28:	c3d8                	sw	a4,4(a5)
    5d2a:	43d8                	lw	a4,4(a5)
    5d2c:	66c1                	lui	a3,0x10
    5d2e:	8f55                	or	a4,a4,a3
    5d30:	c3d8                	sw	a4,4(a5)
    5d32:	4398                	lw	a4,0(a5)
    5d34:	010006b7          	lui	a3,0x1000
    5d38:	8f55                	or	a4,a4,a3
    5d3a:	c398                	sw	a4,0(a5)
    5d3c:	4398                	lw	a4,0(a5)
    5d3e:	00671693          	slli	a3,a4,0x6
    5d42:	fe06dde3          	bgez	a3,5d3c <SystemInit+0xca>
    5d46:	43d8                	lw	a4,4(a5)
    5d48:	400216b7          	lui	a3,0x40021
    5d4c:	9b71                	andi	a4,a4,-4
    5d4e:	c3d8                	sw	a4,4(a5)
    5d50:	43d8                	lw	a4,4(a5)
    5d52:	00276713          	ori	a4,a4,2
    5d56:	c3d8                	sw	a4,4(a5)
    5d58:	4721                	li	a4,8
    5d5a:	42dc                	lw	a5,4(a3)
    5d5c:	8bb1                	andi	a5,a5,12
    5d5e:	fee79ee3          	bne	a5,a4,5d5a <SystemInit+0xe8>
    5d62:	0141                	addi	sp,sp,16
    5d64:	8082                	ret
    5d66:	c602                	sw	zero,12(sp)
    5d68:	bf69                	j	5d02 <SystemInit+0x90>

00005d6a <SystemCoreClockUpdate>:
    5d6a:	40021637          	lui	a2,0x40021
    5d6e:	425c                	lw	a5,4(a2)
    5d70:	20000737          	lui	a4,0x20000
    5d74:	4691                	li	a3,4
    5d76:	8bb1                	andi	a5,a5,12
    5d78:	08070713          	addi	a4,a4,128 # 20000080 <SystemCoreClock>
    5d7c:	00d78563          	beq	a5,a3,5d86 <SystemCoreClockUpdate+0x1c>
    5d80:	46a1                	li	a3,8
    5d82:	02d78963          	beq	a5,a3,5db4 <SystemCoreClockUpdate+0x4a>
    5d86:	007a17b7          	lui	a5,0x7a1
    5d8a:	20078793          	addi	a5,a5,512 # 7a1200 <_data_lma+0x7997a4>
    5d8e:	c31c                	sw	a5,0(a4)
    5d90:	400217b7          	lui	a5,0x40021
    5d94:	43dc                	lw	a5,4(a5)
    5d96:	8391                	srli	a5,a5,0x4
    5d98:	00f7f693          	andi	a3,a5,15
    5d9c:	200007b7          	lui	a5,0x20000
    5da0:	00078793          	mv	a5,a5
    5da4:	97b6                	add	a5,a5,a3
    5da6:	0007c683          	lbu	a3,0(a5) # 20000000 <_data_vma>
    5daa:	431c                	lw	a5,0(a4)
    5dac:	00d7d7b3          	srl	a5,a5,a3
    5db0:	c31c                	sw	a5,0(a4)
    5db2:	8082                	ret
    5db4:	4254                	lw	a3,4(a2)
    5db6:	4250                	lw	a2,4(a2)
    5db8:	67c1                	lui	a5,0x10
    5dba:	82c9                	srli	a3,a3,0x12
    5dbc:	8abd                	andi	a3,a3,15
    5dbe:	8e7d                	and	a2,a2,a5
    5dc0:	00268793          	addi	a5,a3,2 # 40021002 <_eusrstack+0x20019002>
    5dc4:	ca85                	beqz	a3,5df4 <SystemCoreClockUpdate+0x8a>
    5dc6:	46bd                	li	a3,15
    5dc8:	02d78963          	beq	a5,a3,5dfa <SystemCoreClockUpdate+0x90>
    5dcc:	46c1                	li	a3,16
    5dce:	02d78963          	beq	a5,a3,5e00 <SystemCoreClockUpdate+0x96>
    5dd2:	45c5                	li	a1,17
    5dd4:	4681                	li	a3,0
    5dd6:	00b79363          	bne	a5,a1,5ddc <SystemCoreClockUpdate+0x72>
    5dda:	47c1                	li	a5,16
    5ddc:	e60d                	bnez	a2,5e06 <SystemCoreClockUpdate+0x9c>
    5dde:	40024637          	lui	a2,0x40024
    5de2:	80062603          	lw	a2,-2048(a2) # 40023800 <_eusrstack+0x2001b800>
    5de6:	8a41                	andi	a2,a2,16
    5de8:	c615                	beqz	a2,5e14 <SystemCoreClockUpdate+0xaa>
    5dea:	007a1637          	lui	a2,0x7a1
    5dee:	20060613          	addi	a2,a2,512 # 7a1200 <_data_lma+0x7997a4>
    5df2:	a02d                	j	5e1c <SystemCoreClockUpdate+0xb2>
    5df4:	4681                	li	a3,0
    5df6:	47c9                	li	a5,18
    5df8:	b7d5                	j	5ddc <SystemCoreClockUpdate+0x72>
    5dfa:	4685                	li	a3,1
    5dfc:	47b5                	li	a5,13
    5dfe:	bff9                	j	5ddc <SystemCoreClockUpdate+0x72>
    5e00:	4681                	li	a3,0
    5e02:	47bd                	li	a5,15
    5e04:	bfe1                	j	5ddc <SystemCoreClockUpdate+0x72>
    5e06:	40021637          	lui	a2,0x40021
    5e0a:	4250                	lw	a2,4(a2)
    5e0c:	00e61593          	slli	a1,a2,0xe
    5e10:	fc05dde3          	bgez	a1,5dea <SystemCoreClockUpdate+0x80>
    5e14:	003d1637          	lui	a2,0x3d1
    5e18:	90060613          	addi	a2,a2,-1792 # 3d0900 <_data_lma+0x3c8ea4>
    5e1c:	02c787b3          	mul	a5,a5,a2
    5e20:	c31c                	sw	a5,0(a4)
    5e22:	d6bd                	beqz	a3,5d90 <SystemCoreClockUpdate+0x26>
    5e24:	431c                	lw	a5,0(a4)
    5e26:	8385                	srli	a5,a5,0x1
    5e28:	b79d                	j	5d8e <SystemCoreClockUpdate+0x24>

00005e2a <TIM3_Init>:
    5e2a:	7179                	addi	sp,sp,-48
    5e2c:	d422                	sw	s0,40(sp)
    5e2e:	d226                	sw	s1,36(sp)
    5e30:	842e                	mv	s0,a1
    5e32:	84aa                	mv	s1,a0
    5e34:	4585                	li	a1,1
    5e36:	4509                	li	a0,2
    5e38:	d606                	sw	ra,44(sp)
    5e3a:	203000ef          	jal	ra,683c <RCC_APB1PeriphClockCmd>
    5e3e:	00811a23          	sh	s0,20(sp)
    5e42:	40000437          	lui	s0,0x40000
    5e46:	084c                	addi	a1,sp,20
    5e48:	40040513          	addi	a0,s0,1024 # 40000400 <_eusrstack+0x1fff8400>
    5e4c:	00911c23          	sh	s1,24(sp)
    5e50:	00011d23          	sh	zero,26(sp)
    5e54:	00011b23          	sh	zero,22(sp)
    5e58:	28b000ef          	jal	ra,68e2 <TIM_TimeBaseInit>
    5e5c:	4605                	li	a2,1
    5e5e:	4585                	li	a1,1
    5e60:	40040513          	addi	a0,s0,1024
    5e64:	35b000ef          	jal	ra,69be <TIM_ITConfig>
    5e68:	12d00793          	li	a5,301
    5e6c:	00f11623          	sh	a5,12(sp)
    5e70:	4789                	li	a5,2
    5e72:	00f10723          	sb	a5,14(sp)
    5e76:	0068                	addi	a0,sp,12
    5e78:	4785                	li	a5,1
    5e7a:	c83e                	sw	a5,16(sp)
    5e7c:	74e000ef          	jal	ra,65ca <NVIC_Init>
    5e80:	40040513          	addi	a0,s0,1024
    5e84:	4585                	li	a1,1
    5e86:	31d000ef          	jal	ra,69a2 <TIM_Cmd>
    5e8a:	50b2                	lw	ra,44(sp)
    5e8c:	5422                	lw	s0,40(sp)
    5e8e:	5492                	lw	s1,36(sp)
    5e90:	6145                	addi	sp,sp,48
    5e92:	8082                	ret

00005e94 <KB_Scan_Init>:
    5e94:	7179                	addi	sp,sp,-48
    5e96:	4585                	li	a1,1
    5e98:	4511                	li	a0,4
    5e9a:	d606                	sw	ra,44(sp)
    5e9c:	c402                	sw	zero,8(sp)
    5e9e:	c602                	sw	zero,12(sp)
    5ea0:	c802                	sw	zero,16(sp)
    5ea2:	17d000ef          	jal	ra,681e <RCC_APB2PeriphClockCmd>
    5ea6:	0f800793          	li	a5,248
    5eaa:	00f11423          	sh	a5,8(sp)
    5eae:	40011537          	lui	a0,0x40011
    5eb2:	02800793          	li	a5,40
    5eb6:	c83e                	sw	a5,16(sp)
    5eb8:	002c                	addi	a1,sp,8
    5eba:	4785                	li	a5,1
    5ebc:	80050513          	addi	a0,a0,-2048 # 40010800 <_eusrstack+0x20008800>
    5ec0:	c63e                	sw	a5,12(sp)
    5ec2:	2bfd                	jal	64c0 <GPIO_Init>
    5ec4:	4585                	li	a1,1
    5ec6:	4541                	li	a0,16
    5ec8:	ca02                	sw	zero,20(sp)
    5eca:	cc02                	sw	zero,24(sp)
    5ecc:	ce02                	sw	zero,28(sp)
    5ece:	151000ef          	jal	ra,681e <RCC_APB2PeriphClockCmd>
    5ed2:	6791                	lui	a5,0x4
    5ed4:	17fd                	addi	a5,a5,-1
    5ed6:	00f11a23          	sh	a5,20(sp)
    5eda:	47c1                	li	a5,16
    5edc:	ce3e                	sw	a5,28(sp)
    5ede:	084c                	addi	a1,sp,20
    5ee0:	478d                	li	a5,3
    5ee2:	40011537          	lui	a0,0x40011
    5ee6:	cc3e                	sw	a5,24(sp)
    5ee8:	2be1                	jal	64c0 <GPIO_Init>
    5eea:	50b2                	lw	ra,44(sp)
    5eec:	6145                	addi	sp,sp,48
    5eee:	8082                	ret

00005ef0 <KB_Sleep_Wakeup_Cfg>:
    5ef0:	1101                	addi	sp,sp,-32
    5ef2:	4585                	li	a1,1
    5ef4:	4505                	li	a0,1
    5ef6:	ce06                	sw	ra,28(sp)
    5ef8:	cc22                	sw	s0,24(sp)
    5efa:	ca26                	sw	s1,20(sp)
    5efc:	c84a                	sw	s2,16(sp)
    5efe:	c002                	sw	zero,0(sp)
    5f00:	c202                	sw	zero,4(sp)
    5f02:	c402                	sw	zero,8(sp)
    5f04:	c602                	sw	zero,12(sp)
    5f06:	119000ef          	jal	ra,681e <RCC_APB2PeriphClockCmd>
    5f0a:	458d                	li	a1,3
    5f0c:	4501                	li	a0,0
    5f0e:	2569                	jal	6598 <GPIO_EXTILineConfig>
    5f10:	4911                	li	s2,4
    5f12:	44b1                	li	s1,12
    5f14:	4405                	li	s0,1
    5f16:	47a1                	li	a5,8
    5f18:	850a                	mv	a0,sp
    5f1a:	c03e                	sw	a5,0(sp)
    5f1c:	c24a                	sw	s2,4(sp)
    5f1e:	c426                	sw	s1,8(sp)
    5f20:	c622                	sw	s0,12(sp)
    5f22:	2b21                	jal	643a <EXTI_Init>
    5f24:	4591                	li	a1,4
    5f26:	4501                	li	a0,0
    5f28:	2d85                	jal	6598 <GPIO_EXTILineConfig>
    5f2a:	47c1                	li	a5,16
    5f2c:	850a                	mv	a0,sp
    5f2e:	c03e                	sw	a5,0(sp)
    5f30:	c24a                	sw	s2,4(sp)
    5f32:	c426                	sw	s1,8(sp)
    5f34:	c622                	sw	s0,12(sp)
    5f36:	2311                	jal	643a <EXTI_Init>
    5f38:	4595                	li	a1,5
    5f3a:	4501                	li	a0,0
    5f3c:	2db1                	jal	6598 <GPIO_EXTILineConfig>
    5f3e:	02000793          	li	a5,32
    5f42:	850a                	mv	a0,sp
    5f44:	c03e                	sw	a5,0(sp)
    5f46:	c24a                	sw	s2,4(sp)
    5f48:	c426                	sw	s1,8(sp)
    5f4a:	c622                	sw	s0,12(sp)
    5f4c:	21fd                	jal	643a <EXTI_Init>
    5f4e:	4599                	li	a1,6
    5f50:	4501                	li	a0,0
    5f52:	2599                	jal	6598 <GPIO_EXTILineConfig>
    5f54:	04000793          	li	a5,64
    5f58:	850a                	mv	a0,sp
    5f5a:	c03e                	sw	a5,0(sp)
    5f5c:	c24a                	sw	s2,4(sp)
    5f5e:	c426                	sw	s1,8(sp)
    5f60:	c622                	sw	s0,12(sp)
    5f62:	29e1                	jal	643a <EXTI_Init>
    5f64:	459d                	li	a1,7
    5f66:	4501                	li	a0,0
    5f68:	2d05                	jal	6598 <GPIO_EXTILineConfig>
    5f6a:	08000793          	li	a5,128
    5f6e:	850a                	mv	a0,sp
    5f70:	c03e                	sw	a5,0(sp)
    5f72:	c24a                	sw	s2,4(sp)
    5f74:	c426                	sw	s1,8(sp)
    5f76:	c622                	sw	s0,12(sp)
    5f78:	21c9                	jal	643a <EXTI_Init>
    5f7a:	40010737          	lui	a4,0x40010
    5f7e:	40072783          	lw	a5,1024(a4) # 40010400 <_eusrstack+0x20008400>
    5f82:	40f2                	lw	ra,28(sp)
    5f84:	4462                	lw	s0,24(sp)
    5f86:	0f87e793          	ori	a5,a5,248
    5f8a:	40f72023          	sw	a5,1024(a4)
    5f8e:	44d2                	lw	s1,20(sp)
    5f90:	4942                	lw	s2,16(sp)
    5f92:	6105                	addi	sp,sp,32
    5f94:	8082                	ret

00005f96 <KB_Scan>:
    5f96:	1141                	addi	sp,sp,-16
    5f98:	c226                	sw	s1,4(sp)
    5f9a:	400114b7          	lui	s1,0x40011
    5f9e:	80048513          	addi	a0,s1,-2048 # 40010800 <_eusrstack+0x20008800>
    5fa2:	c606                	sw	ra,12(sp)
    5fa4:	c422                	sw	s0,8(sp)
    5fa6:	2bf1                	jal	6582 <GPIO_ReadInputData>
    5fa8:	810d                	srli	a0,a0,0x3
    5faa:	82818413          	addi	s0,gp,-2008 # 200000a8 <raw_matrix>
    5fae:	8905                	andi	a0,a0,1
    5fb0:	00a40023          	sb	a0,0(s0)
    5fb4:	80048513          	addi	a0,s1,-2048
    5fb8:	23e9                	jal	6582 <GPIO_ReadInputData>
    5fba:	8111                	srli	a0,a0,0x4
    5fbc:	8905                	andi	a0,a0,1
    5fbe:	00a400a3          	sb	a0,1(s0)
    5fc2:	40b2                	lw	ra,12(sp)
    5fc4:	4422                	lw	s0,8(sp)
    5fc6:	4492                	lw	s1,4(sp)
    5fc8:	0141                	addi	sp,sp,16
    5fca:	8082                	ret

00005fcc <DB_Algo>:
    5fcc:	8281c603          	lbu	a2,-2008(gp) # 200000a8 <raw_matrix>
    5fd0:	8241c683          	lbu	a3,-2012(gp) # 200000a4 <cooked_matrix>
    5fd4:	82818713          	addi	a4,gp,-2008 # 200000a8 <raw_matrix>
    5fd8:	82418793          	addi	a5,gp,-2012 # 200000a4 <cooked_matrix>
    5fdc:	02c68063          	beq	a3,a2,5ffc <DB_Algo+0x30>
    5fe0:	80418693          	addi	a3,gp,-2044 # 20000084 <Debounce_timer>
    5fe4:	0006c583          	lbu	a1,0(a3)
    5fe8:	e991                	bnez	a1,5ffc <DB_Algo+0x30>
    5fea:	00c78023          	sb	a2,0(a5) # 4000 <__stack_size+0x3800>
    5fee:	8081c603          	lbu	a2,-2040(gp) # 20000088 <t_debounce>
    5ff2:	00c68023          	sb	a2,0(a3)
    5ff6:	4605                	li	a2,1
    5ff8:	82c18623          	sb	a2,-2004(gp) # 200000ac <update_flag>
    5ffc:	00174683          	lbu	a3,1(a4)
    6000:	0017c703          	lbu	a4,1(a5)
    6004:	02d70063          	beq	a4,a3,6024 <DB_Algo+0x58>
    6008:	80418713          	addi	a4,gp,-2044 # 20000084 <Debounce_timer>
    600c:	00174603          	lbu	a2,1(a4)
    6010:	ea11                	bnez	a2,6024 <DB_Algo+0x58>
    6012:	00d780a3          	sb	a3,1(a5)
    6016:	8081c783          	lbu	a5,-2040(gp) # 20000088 <t_debounce>
    601a:	00f700a3          	sb	a5,1(a4)
    601e:	4705                	li	a4,1
    6020:	82e18623          	sb	a4,-2004(gp) # 200000ac <update_flag>
    6024:	8082                	ret

00006026 <DB_Timer>:
    6026:	8041c703          	lbu	a4,-2044(gp) # 20000084 <Debounce_timer>
    602a:	80418793          	addi	a5,gp,-2044 # 20000084 <Debounce_timer>
    602e:	c701                	beqz	a4,6036 <DB_Timer+0x10>
    6030:	177d                	addi	a4,a4,-1
    6032:	00e78023          	sb	a4,0(a5)
    6036:	0017c703          	lbu	a4,1(a5)
    603a:	c701                	beqz	a4,6042 <DB_Timer+0x1c>
    603c:	177d                	addi	a4,a4,-1
    603e:	00e780a3          	sb	a4,1(a5)
    6042:	b769                	j	5fcc <DB_Algo>

00006044 <TIM3_IRQHandler>:
    6044:	1141                	addi	sp,sp,-16
    6046:	c622                	sw	s0,12(sp)
    6048:	40000437          	lui	s0,0x40000
    604c:	4585                	li	a1,1
    604e:	40040513          	addi	a0,s0,1024 # 40000400 <_eusrstack+0x1fff8400>
    6052:	183000ef          	jal	ra,69d4 <TIM_GetITStatus>
    6056:	c519                	beqz	a0,6064 <TIM3_IRQHandler+0x20>
    6058:	4585                	li	a1,1
    605a:	40040513          	addi	a0,s0,1024
    605e:	193000ef          	jal	ra,69f0 <TIM_ClearITPendingBit>
    6062:	37d1                	jal	6026 <DB_Timer>
    6064:	4432                	lw	s0,12(sp)
    6066:	0141                	addi	sp,sp,16
    6068:	30200073          	mret

0000606c <KB_Scan_Handle>:
    606c:	1101                	addi	sp,sp,-32
    606e:	ca26                	sw	s1,20(sp)
    6070:	ce06                	sw	ra,28(sp)
    6072:	cc22                	sw	s0,24(sp)
    6074:	c84a                	sw	s2,16(sp)
    6076:	c64e                	sw	s3,12(sp)
    6078:	3f39                	jal	5f96 <KB_Scan>
    607a:	82c1c703          	lbu	a4,-2004(gp) # 200000ac <update_flag>
    607e:	82d18493          	addi	s1,gp,-2003 # 200000ad <usb_flag>
    6082:	cb31                	beqz	a4,60d6 <KB_Scan_Handle+0x6a>
    6084:	8241c683          	lbu	a3,-2012(gp) # 200000a4 <cooked_matrix>
    6088:	82c18993          	addi	s3,gp,-2004 # 200000ac <update_flag>
    608c:	4785                	li	a5,1
    608e:	00f48023          	sb	a5,0(s1)
    6092:	82018793          	addi	a5,gp,-2016 # 200000a0 <_edata>
    6096:	0017c783          	lbu	a5,1(a5)
    609a:	82018413          	addi	s0,gp,-2016 # 200000a0 <_edata>
    609e:	82418913          	addi	s2,gp,-2012 # 200000a4 <cooked_matrix>
    60a2:	caad                	beqz	a3,6114 <KB_Scan_Handle+0xa8>
    60a4:	0407e793          	ori	a5,a5,64
    60a8:	00f400a3          	sb	a5,1(s0)
    60ac:	4601                	li	a2,0
    60ae:	40011537          	lui	a0,0x40011
    60b2:	10000593          	li	a1,256
    60b6:	c0050513          	addi	a0,a0,-1024 # 40010c00 <_eusrstack+0x20008c00>
    60ba:	29c1                	jal	658a <GPIO_WriteBit>
    60bc:	00144703          	lbu	a4,1(s0)
    60c0:	00194683          	lbu	a3,1(s2)
    60c4:	07f77793          	andi	a5,a4,127
    60c8:	c299                	beqz	a3,60ce <KB_Scan_Handle+0x62>
    60ca:	08076793          	ori	a5,a4,128
    60ce:	00f400a3          	sb	a5,1(s0)
    60d2:	00098023          	sb	zero,0(s3)
    60d6:	0004c783          	lbu	a5,0(s1)
    60da:	c3b9                	beqz	a5,6120 <KB_Scan_Handle+0xb4>
    60dc:	4685                	li	a3,1
    60de:	4609                	li	a2,2
    60e0:	82018593          	addi	a1,gp,-2016 # 200000a0 <_edata>
    60e4:	4505                	li	a0,1
    60e6:	ac0ff0ef          	jal	ra,53a6 <USBHS_Endp_DataUp>
    60ea:	caa18423          	sb	a0,-856(gp) # 20000528 <status>
    60ee:	4785                	li	a5,1
    60f0:	02f51863          	bne	a0,a5,6120 <KB_Scan_Handle+0xb4>
    60f4:	8241c783          	lbu	a5,-2012(gp) # 200000a4 <cooked_matrix>
    60f8:	00048023          	sb	zero,0(s1)
    60fc:	458d                	li	a1,3
    60fe:	e391                	bnez	a5,6102 <KB_Scan_Handle+0x96>
    6100:	45b1                	li	a1,12
    6102:	4462                	lw	s0,24(sp)
    6104:	40f2                	lw	ra,28(sp)
    6106:	44d2                	lw	s1,20(sp)
    6108:	4942                	lw	s2,16(sp)
    610a:	49b2                	lw	s3,12(sp)
    610c:	40011537          	lui	a0,0x40011
    6110:	6105                	addi	sp,sp,32
    6112:	a149                	j	6594 <GPIO_Write>
    6114:	fbf7f793          	andi	a5,a5,-65
    6118:	00f400a3          	sb	a5,1(s0)
    611c:	4605                	li	a2,1
    611e:	bf41                	j	60ae <KB_Scan_Handle+0x42>
    6120:	40f2                	lw	ra,28(sp)
    6122:	4462                	lw	s0,24(sp)
    6124:	44d2                	lw	s1,20(sp)
    6126:	4942                	lw	s2,16(sp)
    6128:	49b2                	lw	s3,12(sp)
    612a:	6105                	addi	sp,sp,32
    612c:	8082                	ret

0000612e <LED_Init>:
    612e:	1101                	addi	sp,sp,-32
    6130:	4585                	li	a1,1
    6132:	4521                	li	a0,8
    6134:	ce06                	sw	ra,28(sp)
    6136:	c202                	sw	zero,4(sp)
    6138:	c402                	sw	zero,8(sp)
    613a:	c602                	sw	zero,12(sp)
    613c:	25cd                	jal	681e <RCC_APB2PeriphClockCmd>
    613e:	33800793          	li	a5,824
    6142:	00f11223          	sh	a5,4(sp)
    6146:	40011537          	lui	a0,0x40011
    614a:	47c1                	li	a5,16
    614c:	c63e                	sw	a5,12(sp)
    614e:	004c                	addi	a1,sp,4
    6150:	478d                	li	a5,3
    6152:	c0050513          	addi	a0,a0,-1024 # 40010c00 <_eusrstack+0x20008c00>
    6156:	c43e                	sw	a5,8(sp)
    6158:	26a5                	jal	64c0 <GPIO_Init>
    615a:	40f2                	lw	ra,28(sp)
    615c:	6105                	addi	sp,sp,32
    615e:	8082                	ret

00006160 <KB_LED_Handle>:
    6160:	1141                	addi	sp,sp,-16
    6162:	c422                	sw	s0,8(sp)
    6164:	c226                	sw	s1,4(sp)
    6166:	c606                	sw	ra,12(sp)
    6168:	82218793          	addi	a5,gp,-2014 # 200000a2 <KB_LED_Cur_Status>
    616c:	0007c703          	lbu	a4,0(a5)
    6170:	82318793          	addi	a5,gp,-2013 # 200000a3 <KB_LED_Last_Status>
    6174:	0007c783          	lbu	a5,0(a5)
    6178:	0ff7f793          	andi	a5,a5,255
    617c:	08e78363          	beq	a5,a4,6202 <KB_LED_Handle+0xa2>
    6180:	82218413          	addi	s0,gp,-2014 # 200000a2 <KB_LED_Cur_Status>
    6184:	82318493          	addi	s1,gp,-2013 # 200000a3 <KB_LED_Last_Status>
    6188:	00044703          	lbu	a4,0(s0)
    618c:	0004c783          	lbu	a5,0(s1)
    6190:	8fb9                	xor	a5,a5,a4
    6192:	8b85                	andi	a5,a5,1
    6194:	cf89                	beqz	a5,61ae <KB_LED_Handle+0x4e>
    6196:	00044783          	lbu	a5,0(s0)
    619a:	4601                	li	a2,0
    619c:	8b85                	andi	a5,a5,1
    619e:	e391                	bnez	a5,61a2 <KB_LED_Handle+0x42>
    61a0:	4605                	li	a2,1
    61a2:	40011537          	lui	a0,0x40011
    61a6:	45a1                	li	a1,8
    61a8:	c0050513          	addi	a0,a0,-1024 # 40010c00 <_eusrstack+0x20008c00>
    61ac:	2ef9                	jal	658a <GPIO_WriteBit>
    61ae:	00044703          	lbu	a4,0(s0)
    61b2:	0004c783          	lbu	a5,0(s1)
    61b6:	8fb9                	xor	a5,a5,a4
    61b8:	8b89                	andi	a5,a5,2
    61ba:	cf89                	beqz	a5,61d4 <KB_LED_Handle+0x74>
    61bc:	00044783          	lbu	a5,0(s0)
    61c0:	4601                	li	a2,0
    61c2:	8b89                	andi	a5,a5,2
    61c4:	e391                	bnez	a5,61c8 <KB_LED_Handle+0x68>
    61c6:	4605                	li	a2,1
    61c8:	40011537          	lui	a0,0x40011
    61cc:	45c1                	li	a1,16
    61ce:	c0050513          	addi	a0,a0,-1024 # 40010c00 <_eusrstack+0x20008c00>
    61d2:	2e65                	jal	658a <GPIO_WriteBit>
    61d4:	00044703          	lbu	a4,0(s0)
    61d8:	0004c783          	lbu	a5,0(s1)
    61dc:	8fb9                	xor	a5,a5,a4
    61de:	8b91                	andi	a5,a5,4
    61e0:	cb99                	beqz	a5,61f6 <KB_LED_Handle+0x96>
    61e2:	40011537          	lui	a0,0x40011
    61e6:	00044783          	lbu	a5,0(s0)
    61ea:	4601                	li	a2,0
    61ec:	02000593          	li	a1,32
    61f0:	c0050513          	addi	a0,a0,-1024 # 40010c00 <_eusrstack+0x20008c00>
    61f4:	2e59                	jal	658a <GPIO_WriteBit>
    61f6:	00044783          	lbu	a5,0(s0)
    61fa:	0ff7f793          	andi	a5,a5,255
    61fe:	00f48023          	sb	a5,0(s1)
    6202:	40b2                	lw	ra,12(sp)
    6204:	4422                	lw	s0,8(sp)
    6206:	4492                	lw	s1,4(sp)
    6208:	0141                	addi	sp,sp,16
    620a:	8082                	ret

0000620c <KB_Schedule>:
    620c:	1141                	addi	sp,sp,-16
    620e:	c422                	sw	s0,8(sp)
    6210:	c606                	sw	ra,12(sp)
    6212:	c961c783          	lbu	a5,-874(gp) # 20000516 <USBHS_DevEnumStatus>
    6216:	0ff7f793          	andi	a5,a5,255
    621a:	dfe5                	beqz	a5,6212 <KB_Schedule+0x6>
    621c:	3d81                	jal	606c <KB_Scan_Handle>
    621e:	3789                	jal	6160 <KB_LED_Handle>
    6220:	bfcd                	j	6212 <KB_Schedule+0x6>

00006222 <USB_Sleep_Wakeup_CFG>:
    6222:	1101                	addi	sp,sp,-32
    6224:	001007b7          	lui	a5,0x100
    6228:	c03e                	sw	a5,0(sp)
    622a:	4791                	li	a5,4
    622c:	c23e                	sw	a5,4(sp)
    622e:	47c1                	li	a5,16
    6230:	c43e                	sw	a5,8(sp)
    6232:	850a                	mv	a0,sp
    6234:	4785                	li	a5,1
    6236:	ce06                	sw	ra,28(sp)
    6238:	c63e                	sw	a5,12(sp)
    623a:	2401                	jal	643a <EXTI_Init>
    623c:	40f2                	lw	ra,28(sp)
    623e:	6105                	addi	sp,sp,32
    6240:	8082                	ret

00006242 <MCU_Sleep_Wakeup_Operate>:
    6242:	1141                	addi	sp,sp,-16
    6244:	0f800513          	li	a0,248
    6248:	c606                	sw	ra,12(sp)
    624a:	c422                	sw	s0,8(sp)
    624c:	24ad                	jal	64b6 <EXTI_ClearFlag>
    624e:	6411                	lui	s0,0x4
    6250:	fff40593          	addi	a1,s0,-1 # 3fff <__stack_size+0x37ff>
    6254:	40011537          	lui	a0,0x40011
    6258:	2e35                	jal	6594 <GPIO_Write>
    625a:	00008537          	lui	a0,0x8
    625e:	8c850513          	addi	a0,a0,-1848 # 78c8 <_read+0xb4>
    6262:	397000ef          	jal	ra,6df8 <puts>
    6266:	e000f7b7          	lui	a5,0xe000f
    626a:	d107a683          	lw	a3,-752(a5) # e000ed10 <_eusrstack+0xc0006d10>
    626e:	d107a703          	lw	a4,-752(a5)
    6272:	0206f693          	andi	a3,a3,32
    6276:	02876713          	ori	a4,a4,40
    627a:	d0e7a823          	sw	a4,-752(a5)
    627e:	d107a703          	lw	a4,-752(a5)
    6282:	fdf77713          	andi	a4,a4,-33
    6286:	8f55                	or	a4,a4,a3
    6288:	d0e7a823          	sw	a4,-752(a5)
    628c:	10500073          	wfi
    6290:	10500073          	wfi
    6294:	0f800513          	li	a0,248
    6298:	2431                	jal	64a4 <EXTI_GetFlagStatus>
    629a:	cd1d                	beqz	a0,62d8 <MCU_Sleep_Wakeup_Operate+0x96>
    629c:	4581                	li	a1,0
    629e:	40011537          	lui	a0,0x40011
    62a2:	2ccd                	jal	6594 <GPIO_Write>
    62a4:	4515                	li	a0,5
    62a6:	08d000ef          	jal	ra,6b32 <Delay_Us>
    62aa:	0f800513          	li	a0,248
    62ae:	2421                	jal	64b6 <EXTI_ClearFlag>
    62b0:	fff40593          	addi	a1,s0,-1
    62b4:	40011537          	lui	a0,0x40011
    62b8:	40011437          	lui	s0,0x40011
    62bc:	2ce1                	jal	6594 <GPIO_Write>
    62be:	80040413          	addi	s0,s0,-2048 # 40010800 <_eusrstack+0x20008800>
    62c2:	8522                	mv	a0,s0
    62c4:	2c7d                	jal	6582 <GPIO_ReadInputData>
    62c6:	0f857513          	andi	a0,a0,248
    62ca:	e105                	bnez	a0,62ea <MCU_Sleep_Wakeup_Operate+0xa8>
    62cc:	4581                	li	a1,0
    62ce:	40011537          	lui	a0,0x40011
    62d2:	24c9                	jal	6594 <GPIO_Write>
    62d4:	8e9ff0ef          	jal	ra,5bbc <USBHS_Send_Resume>
    62d8:	4422                	lw	s0,8(sp)
    62da:	40b2                	lw	ra,12(sp)
    62dc:	00008537          	lui	a0,0x8
    62e0:	8d050513          	addi	a0,a0,-1840 # 78d0 <_read+0xbc>
    62e4:	0141                	addi	sp,sp,16
    62e6:	3130006f          	j	6df8 <puts>
    62ea:	4529                	li	a0,10
    62ec:	07d000ef          	jal	ra,6b68 <Delay_Ms>
    62f0:	bfc9                	j	62c2 <MCU_Sleep_Wakeup_Operate+0x80>
    62f2:	a001                	j	62f2 <MCU_Sleep_Wakeup_Operate+0xb0>
    62f4:	a001                	j	62f4 <MCU_Sleep_Wakeup_Operate+0xb2>

000062f6 <Ecall_M_Mode_Handler>:
    62f6:	a001                	j	62f6 <Ecall_M_Mode_Handler>

000062f8 <Ecall_U_Mode_Handler>:
    62f8:	a001                	j	62f8 <Ecall_U_Mode_Handler>

000062fa <Break_Point_Handler>:
    62fa:	a001                	j	62fa <Break_Point_Handler>

000062fc <SysTick_Handler>:
    62fc:	a001                	j	62fc <SysTick_Handler>

000062fe <SW_Handler>:
    62fe:	a001                	j	62fe <SW_Handler>

00006300 <WWDG_IRQHandler>:
    6300:	a001                	j	6300 <WWDG_IRQHandler>

00006302 <PVD_IRQHandler>:
    6302:	a001                	j	6302 <PVD_IRQHandler>

00006304 <TAMPER_IRQHandler>:
    6304:	a001                	j	6304 <TAMPER_IRQHandler>

00006306 <RTC_IRQHandler>:
    6306:	a001                	j	6306 <RTC_IRQHandler>

00006308 <FLASH_IRQHandler>:
    6308:	a001                	j	6308 <FLASH_IRQHandler>

0000630a <RCC_IRQHandler>:
    630a:	a001                	j	630a <RCC_IRQHandler>

0000630c <EXTI0_IRQHandler>:
    630c:	a001                	j	630c <EXTI0_IRQHandler>

0000630e <EXTI1_IRQHandler>:
    630e:	a001                	j	630e <EXTI1_IRQHandler>

00006310 <EXTI2_IRQHandler>:
    6310:	a001                	j	6310 <EXTI2_IRQHandler>

00006312 <EXTI3_IRQHandler>:
    6312:	a001                	j	6312 <EXTI3_IRQHandler>

00006314 <EXTI4_IRQHandler>:
    6314:	a001                	j	6314 <EXTI4_IRQHandler>

00006316 <DMA1_Channel1_IRQHandler>:
    6316:	a001                	j	6316 <DMA1_Channel1_IRQHandler>

00006318 <DMA1_Channel2_IRQHandler>:
    6318:	a001                	j	6318 <DMA1_Channel2_IRQHandler>

0000631a <DMA1_Channel3_IRQHandler>:
    631a:	a001                	j	631a <DMA1_Channel3_IRQHandler>

0000631c <DMA1_Channel4_IRQHandler>:
    631c:	a001                	j	631c <DMA1_Channel4_IRQHandler>

0000631e <DMA1_Channel5_IRQHandler>:
    631e:	a001                	j	631e <DMA1_Channel5_IRQHandler>

00006320 <DMA1_Channel6_IRQHandler>:
    6320:	a001                	j	6320 <DMA1_Channel6_IRQHandler>

00006322 <DMA1_Channel7_IRQHandler>:
    6322:	a001                	j	6322 <DMA1_Channel7_IRQHandler>

00006324 <ADC1_2_IRQHandler>:
    6324:	a001                	j	6324 <ADC1_2_IRQHandler>

00006326 <USB_HP_CAN1_TX_IRQHandler>:
    6326:	a001                	j	6326 <USB_HP_CAN1_TX_IRQHandler>

00006328 <USB_LP_CAN1_RX0_IRQHandler>:
    6328:	a001                	j	6328 <USB_LP_CAN1_RX0_IRQHandler>

0000632a <CAN1_RX1_IRQHandler>:
    632a:	a001                	j	632a <CAN1_RX1_IRQHandler>

0000632c <CAN1_SCE_IRQHandler>:
    632c:	a001                	j	632c <CAN1_SCE_IRQHandler>

0000632e <EXTI9_5_IRQHandler>:
    632e:	a001                	j	632e <EXTI9_5_IRQHandler>

00006330 <TIM1_BRK_IRQHandler>:
    6330:	a001                	j	6330 <TIM1_BRK_IRQHandler>

00006332 <TIM1_UP_IRQHandler>:
    6332:	a001                	j	6332 <TIM1_UP_IRQHandler>

00006334 <TIM1_TRG_COM_IRQHandler>:
    6334:	a001                	j	6334 <TIM1_TRG_COM_IRQHandler>

00006336 <TIM1_CC_IRQHandler>:
    6336:	a001                	j	6336 <TIM1_CC_IRQHandler>

00006338 <TIM2_IRQHandler>:
    6338:	a001                	j	6338 <TIM2_IRQHandler>
    633a:	a001                	j	633a <TIM2_IRQHandler+0x2>

0000633c <TIM4_IRQHandler>:
    633c:	a001                	j	633c <TIM4_IRQHandler>

0000633e <I2C1_EV_IRQHandler>:
    633e:	a001                	j	633e <I2C1_EV_IRQHandler>

00006340 <I2C1_ER_IRQHandler>:
    6340:	a001                	j	6340 <I2C1_ER_IRQHandler>

00006342 <I2C2_EV_IRQHandler>:
    6342:	a001                	j	6342 <I2C2_EV_IRQHandler>

00006344 <I2C2_ER_IRQHandler>:
    6344:	a001                	j	6344 <I2C2_ER_IRQHandler>

00006346 <SPI1_IRQHandler>:
    6346:	a001                	j	6346 <SPI1_IRQHandler>

00006348 <SPI2_IRQHandler>:
    6348:	a001                	j	6348 <SPI2_IRQHandler>

0000634a <USART1_IRQHandler>:
    634a:	a001                	j	634a <USART1_IRQHandler>

0000634c <USART2_IRQHandler>:
    634c:	a001                	j	634c <USART2_IRQHandler>

0000634e <USART3_IRQHandler>:
    634e:	a001                	j	634e <USART3_IRQHandler>

00006350 <EXTI15_10_IRQHandler>:
    6350:	a001                	j	6350 <EXTI15_10_IRQHandler>

00006352 <RTCAlarm_IRQHandler>:
    6352:	a001                	j	6352 <RTCAlarm_IRQHandler>

00006354 <USBWakeUp_IRQHandler>:
    6354:	a001                	j	6354 <USBWakeUp_IRQHandler>

00006356 <TIM8_BRK_IRQHandler>:
    6356:	a001                	j	6356 <TIM8_BRK_IRQHandler>

00006358 <TIM8_UP_IRQHandler>:
    6358:	a001                	j	6358 <TIM8_UP_IRQHandler>

0000635a <TIM8_TRG_COM_IRQHandler>:
    635a:	a001                	j	635a <TIM8_TRG_COM_IRQHandler>

0000635c <TIM8_CC_IRQHandler>:
    635c:	a001                	j	635c <TIM8_CC_IRQHandler>

0000635e <RNG_IRQHandler>:
    635e:	a001                	j	635e <RNG_IRQHandler>

00006360 <FSMC_IRQHandler>:
    6360:	a001                	j	6360 <FSMC_IRQHandler>

00006362 <SDIO_IRQHandler>:
    6362:	a001                	j	6362 <SDIO_IRQHandler>

00006364 <TIM5_IRQHandler>:
    6364:	a001                	j	6364 <TIM5_IRQHandler>

00006366 <SPI3_IRQHandler>:
    6366:	a001                	j	6366 <SPI3_IRQHandler>

00006368 <UART4_IRQHandler>:
    6368:	a001                	j	6368 <UART4_IRQHandler>

0000636a <UART5_IRQHandler>:
    636a:	a001                	j	636a <UART5_IRQHandler>

0000636c <TIM6_IRQHandler>:
    636c:	a001                	j	636c <TIM6_IRQHandler>

0000636e <TIM7_IRQHandler>:
    636e:	a001                	j	636e <TIM7_IRQHandler>

00006370 <DMA2_Channel1_IRQHandler>:
    6370:	a001                	j	6370 <DMA2_Channel1_IRQHandler>

00006372 <DMA2_Channel2_IRQHandler>:
    6372:	a001                	j	6372 <DMA2_Channel2_IRQHandler>

00006374 <DMA2_Channel3_IRQHandler>:
    6374:	a001                	j	6374 <DMA2_Channel3_IRQHandler>

00006376 <DMA2_Channel4_IRQHandler>:
    6376:	a001                	j	6376 <DMA2_Channel4_IRQHandler>

00006378 <DMA2_Channel5_IRQHandler>:
    6378:	a001                	j	6378 <DMA2_Channel5_IRQHandler>

0000637a <ETH_IRQHandler>:
    637a:	a001                	j	637a <ETH_IRQHandler>

0000637c <ETH_WKUP_IRQHandler>:
    637c:	a001                	j	637c <ETH_WKUP_IRQHandler>

0000637e <CAN2_TX_IRQHandler>:
    637e:	a001                	j	637e <CAN2_TX_IRQHandler>

00006380 <CAN2_RX0_IRQHandler>:
    6380:	a001                	j	6380 <CAN2_RX0_IRQHandler>

00006382 <CAN2_RX1_IRQHandler>:
    6382:	a001                	j	6382 <CAN2_RX1_IRQHandler>

00006384 <CAN2_SCE_IRQHandler>:
    6384:	a001                	j	6384 <CAN2_SCE_IRQHandler>

00006386 <OTG_FS_IRQHandler>:
    6386:	a001                	j	6386 <OTG_FS_IRQHandler>

00006388 <USBHSWakeup_IRQHandler>:
    6388:	a001                	j	6388 <USBHSWakeup_IRQHandler>
    638a:	a001                	j	638a <USBHSWakeup_IRQHandler+0x2>

0000638c <DVP_IRQHandler>:
    638c:	a001                	j	638c <DVP_IRQHandler>

0000638e <UART6_IRQHandler>:
    638e:	a001                	j	638e <UART6_IRQHandler>

00006390 <UART7_IRQHandler>:
    6390:	a001                	j	6390 <UART7_IRQHandler>

00006392 <UART8_IRQHandler>:
    6392:	a001                	j	6392 <UART8_IRQHandler>

00006394 <TIM9_BRK_IRQHandler>:
    6394:	a001                	j	6394 <TIM9_BRK_IRQHandler>

00006396 <TIM9_UP_IRQHandler>:
    6396:	a001                	j	6396 <TIM9_UP_IRQHandler>

00006398 <TIM9_TRG_COM_IRQHandler>:
    6398:	a001                	j	6398 <TIM9_TRG_COM_IRQHandler>

0000639a <TIM9_CC_IRQHandler>:
    639a:	a001                	j	639a <TIM9_CC_IRQHandler>

0000639c <TIM10_BRK_IRQHandler>:
    639c:	a001                	j	639c <TIM10_BRK_IRQHandler>

0000639e <TIM10_UP_IRQHandler>:
    639e:	a001                	j	639e <TIM10_UP_IRQHandler>

000063a0 <TIM10_TRG_COM_IRQHandler>:
    63a0:	a001                	j	63a0 <TIM10_TRG_COM_IRQHandler>

000063a2 <TIM10_CC_IRQHandler>:
    63a2:	a001                	j	63a2 <TIM10_CC_IRQHandler>

000063a4 <DMA2_Channel6_IRQHandler>:
    63a4:	a001                	j	63a4 <DMA2_Channel6_IRQHandler>

000063a6 <DMA2_Channel7_IRQHandler>:
    63a6:	a001                	j	63a6 <DMA2_Channel7_IRQHandler>

000063a8 <DMA2_Channel8_IRQHandler>:
    63a8:	a001                	j	63a8 <DMA2_Channel8_IRQHandler>

000063aa <DMA2_Channel9_IRQHandler>:
    63aa:	a001                	j	63aa <DMA2_Channel9_IRQHandler>

000063ac <DMA2_Channel10_IRQHandler>:
    63ac:	a001                	j	63ac <DMA2_Channel10_IRQHandler>

000063ae <DMA2_Channel11_IRQHandler>:
    63ae:	a001                	j	63ae <DMA2_Channel11_IRQHandler>

000063b0 <handle_reset>:
    63b0:	1fffa197          	auipc	gp,0x1fffa
    63b4:	4d018193          	addi	gp,gp,1232 # 20000880 <__global_pointer$>
    63b8:	20002117          	auipc	sp,0x20002
    63bc:	c4810113          	addi	sp,sp,-952 # 20008000 <_eusrstack>
    63c0:	00001517          	auipc	a0,0x1
    63c4:	69c50513          	addi	a0,a0,1692 # 7a5c <_data_lma>
    63c8:	1fffa597          	auipc	a1,0x1fffa
    63cc:	c3858593          	addi	a1,a1,-968 # 20000000 <_data_vma>
    63d0:	82018613          	addi	a2,gp,-2016 # 200000a0 <_edata>
    63d4:	00c5fa63          	bgeu	a1,a2,63e8 <handle_reset+0x38>
    63d8:	00052283          	lw	t0,0(a0)
    63dc:	0055a023          	sw	t0,0(a1)
    63e0:	0511                	addi	a0,a0,4
    63e2:	0591                	addi	a1,a1,4
    63e4:	fec5eae3          	bltu	a1,a2,63d8 <handle_reset+0x28>
    63e8:	82018513          	addi	a0,gp,-2016 # 200000a0 <_edata>
    63ec:	cb018593          	addi	a1,gp,-848 # 20000530 <_ebss>
    63f0:	00b57763          	bgeu	a0,a1,63fe <handle_reset+0x4e>
    63f4:	00052023          	sw	zero,0(a0)
    63f8:	0511                	addi	a0,a0,4
    63fa:	feb56de3          	bltu	a0,a1,63f4 <handle_reset+0x44>
    63fe:	42fd                	li	t0,31
    6400:	bc029073          	csrw	0xbc0,t0
    6404:	42ad                	li	t0,11
    6406:	80429073          	csrw	0x804,t0
    640a:	000062b7          	lui	t0,0x6
    640e:	08828293          	addi	t0,t0,136 # 6088 <KB_Scan_Handle+0x1c>
    6412:	3002a073          	csrs	mstatus,t0
    6416:	fffff297          	auipc	t0,0xfffff
    641a:	c2228293          	addi	t0,t0,-990 # 5038 <_einit>
    641e:	0032e293          	ori	t0,t0,3
    6422:	30529073          	csrw	mtvec,t0
    6426:	84dff0ef          	jal	ra,5c72 <SystemInit>
    642a:	fffff297          	auipc	t0,0xfffff
    642e:	7c628293          	addi	t0,t0,1990 # 5bf0 <main>
    6432:	34129073          	csrw	mepc,t0
    6436:	30200073          	mret

0000643a <EXTI_Init>:
    643a:	4158                	lw	a4,4(a0)
    643c:	00052803          	lw	a6,0(a0)
    6440:	454c                	lw	a1,12(a0)
    6442:	40010637          	lui	a2,0x40010
    6446:	40060793          	addi	a5,a2,1024 # 40010400 <_eusrstack+0x20008400>
    644a:	973e                	add	a4,a4,a5
    644c:	fff84693          	not	a3,a6
    6450:	c5b1                	beqz	a1,649c <EXTI_Init+0x62>
    6452:	40062583          	lw	a1,1024(a2)
    6456:	8df5                	and	a1,a1,a3
    6458:	40b62023          	sw	a1,1024(a2)
    645c:	43d0                	lw	a2,4(a5)
    645e:	8ef1                	and	a3,a3,a2
    6460:	c3d4                	sw	a3,4(a5)
    6462:	4314                	lw	a3,0(a4)
    6464:	0106e6b3          	or	a3,a3,a6
    6468:	c314                	sw	a3,0(a4)
    646a:	4118                	lw	a4,0(a0)
    646c:	4790                	lw	a2,8(a5)
    646e:	fff74693          	not	a3,a4
    6472:	8e75                	and	a2,a2,a3
    6474:	c790                	sw	a2,8(a5)
    6476:	47d0                	lw	a2,12(a5)
    6478:	8ef1                	and	a3,a3,a2
    647a:	c7d4                	sw	a3,12(a5)
    647c:	4514                	lw	a3,8(a0)
    647e:	4641                	li	a2,16
    6480:	00c69963          	bne	a3,a2,6492 <EXTI_Init+0x58>
    6484:	4794                	lw	a3,8(a5)
    6486:	8ed9                	or	a3,a3,a4
    6488:	c794                	sw	a3,8(a5)
    648a:	47d4                	lw	a3,12(a5)
    648c:	8f55                	or	a4,a4,a3
    648e:	c7d8                	sw	a4,12(a5)
    6490:	8082                	ret
    6492:	97b6                	add	a5,a5,a3
    6494:	4394                	lw	a3,0(a5)
    6496:	8f55                	or	a4,a4,a3
    6498:	c398                	sw	a4,0(a5)
    649a:	8082                	ret
    649c:	431c                	lw	a5,0(a4)
    649e:	8ff5                	and	a5,a5,a3
    64a0:	c31c                	sw	a5,0(a4)
    64a2:	8082                	ret

000064a4 <EXTI_GetFlagStatus>:
    64a4:	400107b7          	lui	a5,0x40010
    64a8:	40078793          	addi	a5,a5,1024 # 40010400 <_eusrstack+0x20008400>
    64ac:	4bdc                	lw	a5,20(a5)
    64ae:	8d7d                	and	a0,a0,a5
    64b0:	00a03533          	snez	a0,a0
    64b4:	8082                	ret

000064b6 <EXTI_ClearFlag>:
    64b6:	400107b7          	lui	a5,0x40010
    64ba:	40a7aa23          	sw	a0,1044(a5) # 40010414 <_eusrstack+0x20008414>
    64be:	8082                	ret

000064c0 <GPIO_Init>:
    64c0:	459c                	lw	a5,8(a1)
    64c2:	0107f713          	andi	a4,a5,16
    64c6:	00f7f813          	andi	a6,a5,15
    64ca:	c701                	beqz	a4,64d2 <GPIO_Init+0x12>
    64cc:	41d8                	lw	a4,4(a1)
    64ce:	00e86833          	or	a6,a6,a4
    64d2:	0005d583          	lhu	a1,0(a1)
    64d6:	0ff5f713          	andi	a4,a1,255
    64da:	c339                	beqz	a4,6520 <GPIO_Init+0x60>
    64dc:	4118                	lw	a4,0(a0)
    64de:	4681                	li	a3,0
    64e0:	4e85                	li	t4,1
    64e2:	4f3d                	li	t5,15
    64e4:	02800f93          	li	t6,40
    64e8:	04800293          	li	t0,72
    64ec:	4e21                	li	t3,8
    64ee:	00de9633          	sll	a2,t4,a3
    64f2:	00c5f8b3          	and	a7,a1,a2
    64f6:	03161163          	bne	a2,a7,6518 <GPIO_Init+0x58>
    64fa:	00269893          	slli	a7,a3,0x2
    64fe:	011f1333          	sll	t1,t5,a7
    6502:	fff34313          	not	t1,t1
    6506:	00e37733          	and	a4,t1,a4
    650a:	011818b3          	sll	a7,a6,a7
    650e:	00e8e733          	or	a4,a7,a4
    6512:	05f79f63          	bne	a5,t6,6570 <GPIO_Init+0xb0>
    6516:	c950                	sw	a2,20(a0)
    6518:	0685                	addi	a3,a3,1
    651a:	fdc69ae3          	bne	a3,t3,64ee <GPIO_Init+0x2e>
    651e:	c118                	sw	a4,0(a0)
    6520:	0ff00713          	li	a4,255
    6524:	04b77563          	bgeu	a4,a1,656e <GPIO_Init+0xae>
    6528:	4154                	lw	a3,4(a0)
    652a:	4621                	li	a2,8
    652c:	4e85                	li	t4,1
    652e:	4f3d                	li	t5,15
    6530:	02800f93          	li	t6,40
    6534:	04800293          	li	t0,72
    6538:	4e41                	li	t3,16
    653a:	00ce98b3          	sll	a7,t4,a2
    653e:	0115f733          	and	a4,a1,a7
    6542:	02e89263          	bne	a7,a4,6566 <GPIO_Init+0xa6>
    6546:	00261713          	slli	a4,a2,0x2
    654a:	1701                	addi	a4,a4,-32
    654c:	00ef1333          	sll	t1,t5,a4
    6550:	fff34313          	not	t1,t1
    6554:	00d376b3          	and	a3,t1,a3
    6558:	00e81733          	sll	a4,a6,a4
    655c:	8ed9                	or	a3,a3,a4
    655e:	01f79d63          	bne	a5,t6,6578 <GPIO_Init+0xb8>
    6562:	01152a23          	sw	a7,20(a0)
    6566:	0605                	addi	a2,a2,1
    6568:	fdc619e3          	bne	a2,t3,653a <GPIO_Init+0x7a>
    656c:	c154                	sw	a3,4(a0)
    656e:	8082                	ret
    6570:	fa5794e3          	bne	a5,t0,6518 <GPIO_Init+0x58>
    6574:	c910                	sw	a2,16(a0)
    6576:	b74d                	j	6518 <GPIO_Init+0x58>
    6578:	fe5797e3          	bne	a5,t0,6566 <GPIO_Init+0xa6>
    657c:	01152823          	sw	a7,16(a0)
    6580:	b7dd                	j	6566 <GPIO_Init+0xa6>

00006582 <GPIO_ReadInputData>:
    6582:	4508                	lw	a0,8(a0)
    6584:	0542                	slli	a0,a0,0x10
    6586:	8141                	srli	a0,a0,0x10
    6588:	8082                	ret

0000658a <GPIO_WriteBit>:
    658a:	c219                	beqz	a2,6590 <GPIO_WriteBit+0x6>
    658c:	c90c                	sw	a1,16(a0)
    658e:	8082                	ret
    6590:	c94c                	sw	a1,20(a0)
    6592:	8082                	ret

00006594 <GPIO_Write>:
    6594:	c54c                	sw	a1,12(a0)
    6596:	8082                	ret

00006598 <GPIO_EXTILineConfig>:
    6598:	0fc5f713          	andi	a4,a1,252
    659c:	0035f793          	andi	a5,a1,3
    65a0:	400105b7          	lui	a1,0x40010
    65a4:	95ba                	add	a1,a1,a4
    65a6:	4594                	lw	a3,8(a1)
    65a8:	078a                	slli	a5,a5,0x2
    65aa:	473d                	li	a4,15
    65ac:	00f71733          	sll	a4,a4,a5
    65b0:	fff74713          	not	a4,a4
    65b4:	8f75                	and	a4,a4,a3
    65b6:	c598                	sw	a4,8(a1)
    65b8:	4598                	lw	a4,8(a1)
    65ba:	00f51533          	sll	a0,a0,a5
    65be:	8d59                	or	a0,a0,a4
    65c0:	c588                	sw	a0,8(a1)
    65c2:	8082                	ret

000065c4 <NVIC_PriorityGroupConfig>:
    65c4:	82a1a823          	sw	a0,-2000(gp) # 200000b0 <NVIC_Priority_Group>
    65c8:	8082                	ret

000065ca <NVIC_Init>:
    65ca:	83018793          	addi	a5,gp,-2000 # 200000b0 <NVIC_Priority_Group>
    65ce:	4394                	lw	a3,0(a5)
    65d0:	00054703          	lbu	a4,0(a0)
    65d4:	e689                	bnez	a3,65de <NVIC_Init+0x14>
    65d6:	00254783          	lbu	a5,2(a0)
    65da:	0792                	slli	a5,a5,0x4
    65dc:	a831                	j	65f8 <NVIC_Init+0x2e>
    65de:	4394                	lw	a3,0(a5)
    65e0:	4605                	li	a2,1
    65e2:	04c69163          	bne	a3,a2,6624 <NVIC_Init+0x5a>
    65e6:	00254783          	lbu	a5,2(a0)
    65ea:	00154603          	lbu	a2,1(a0)
    65ee:	0792                	slli	a5,a5,0x4
    65f0:	00d61463          	bne	a2,a3,65f8 <NVIC_Init+0x2e>
    65f4:	f807e793          	ori	a5,a5,-128
    65f8:	e000e6b7          	lui	a3,0xe000e
    65fc:	0ff7f793          	andi	a5,a5,255
    6600:	96ba                	add	a3,a3,a4
    6602:	40f68023          	sb	a5,1024(a3) # e000e400 <_eusrstack+0xc0006400>
    6606:	4685                	li	a3,1
    6608:	00575793          	srli	a5,a4,0x5
    660c:	00e69733          	sll	a4,a3,a4
    6610:	4154                	lw	a3,4(a0)
    6612:	c6ad                	beqz	a3,667c <NVIC_Init+0xb2>
    6614:	04078793          	addi	a5,a5,64
    6618:	078a                	slli	a5,a5,0x2
    661a:	e000e6b7          	lui	a3,0xe000e
    661e:	97b6                	add	a5,a5,a3
    6620:	c398                	sw	a4,0(a5)
    6622:	8082                	ret
    6624:	438c                	lw	a1,0(a5)
    6626:	4689                	li	a3,2
    6628:	02d59363          	bne	a1,a3,664e <NVIC_Init+0x84>
    662c:	00154683          	lbu	a3,1(a0)
    6630:	00254783          	lbu	a5,2(a0)
    6634:	00d66563          	bltu	a2,a3,663e <NVIC_Init+0x74>
    6638:	068a                	slli	a3,a3,0x2
    663a:	97b6                	add	a5,a5,a3
    663c:	bf79                	j	65da <NVIC_Init+0x10>
    663e:	03e68693          	addi	a3,a3,62 # e000e03e <_eusrstack+0xc000603e>
    6642:	068a                	slli	a3,a3,0x2
    6644:	97b6                	add	a5,a5,a3
    6646:	0ff7f793          	andi	a5,a5,255
    664a:	0792                	slli	a5,a5,0x4
    664c:	b765                	j	65f4 <NVIC_Init+0x2a>
    664e:	4390                	lw	a2,0(a5)
    6650:	468d                	li	a3,3
    6652:	00d61e63          	bne	a2,a3,666e <NVIC_Init+0xa4>
    6656:	00154683          	lbu	a3,1(a0)
    665a:	00254783          	lbu	a5,2(a0)
    665e:	00d66463          	bltu	a2,a3,6666 <NVIC_Init+0x9c>
    6662:	0686                	slli	a3,a3,0x1
    6664:	bfd9                	j	663a <NVIC_Init+0x70>
    6666:	07c68693          	addi	a3,a3,124
    666a:	0686                	slli	a3,a3,0x1
    666c:	bfe1                	j	6644 <NVIC_Init+0x7a>
    666e:	4394                	lw	a3,0(a5)
    6670:	4791                	li	a5,4
    6672:	f8f69ae3          	bne	a3,a5,6606 <NVIC_Init+0x3c>
    6676:	00154783          	lbu	a5,1(a0)
    667a:	b785                	j	65da <NVIC_Init+0x10>
    667c:	06078793          	addi	a5,a5,96
    6680:	bf61                	j	6618 <NVIC_Init+0x4e>

00006682 <RCC_GetClocksFreq>:
    6682:	40021737          	lui	a4,0x40021
    6686:	435c                	lw	a5,4(a4)
    6688:	4691                	li	a3,4
    668a:	8bb1                	andi	a5,a5,12
    668c:	00d78563          	beq	a5,a3,6696 <RCC_GetClocksFreq+0x14>
    6690:	46a1                	li	a3,8
    6692:	06d78663          	beq	a5,a3,66fe <RCC_GetClocksFreq+0x7c>
    6696:	007a17b7          	lui	a5,0x7a1
    669a:	20078793          	addi	a5,a5,512 # 7a1200 <_data_lma+0x7997a4>
    669e:	c11c                	sw	a5,0(a0)
    66a0:	40021637          	lui	a2,0x40021
    66a4:	425c                	lw	a5,4(a2)
    66a6:	20000737          	lui	a4,0x20000
    66aa:	01070713          	addi	a4,a4,16 # 20000010 <APBAHBPrescTable>
    66ae:	8391                	srli	a5,a5,0x4
    66b0:	8bbd                	andi	a5,a5,15
    66b2:	97ba                	add	a5,a5,a4
    66b4:	0007c683          	lbu	a3,0(a5)
    66b8:	411c                	lw	a5,0(a0)
    66ba:	00d7d7b3          	srl	a5,a5,a3
    66be:	c15c                	sw	a5,4(a0)
    66c0:	4254                	lw	a3,4(a2)
    66c2:	82a1                	srli	a3,a3,0x8
    66c4:	8a9d                	andi	a3,a3,7
    66c6:	96ba                	add	a3,a3,a4
    66c8:	0006c683          	lbu	a3,0(a3)
    66cc:	00d7d6b3          	srl	a3,a5,a3
    66d0:	c514                	sw	a3,8(a0)
    66d2:	4254                	lw	a3,4(a2)
    66d4:	82ad                	srli	a3,a3,0xb
    66d6:	8a9d                	andi	a3,a3,7
    66d8:	9736                	add	a4,a4,a3
    66da:	00074703          	lbu	a4,0(a4)
    66de:	00e7d7b3          	srl	a5,a5,a4
    66e2:	c55c                	sw	a5,12(a0)
    66e4:	4258                	lw	a4,4(a2)
    66e6:	8339                	srli	a4,a4,0xe
    66e8:	00377693          	andi	a3,a4,3
    66ec:	80c18713          	addi	a4,gp,-2036 # 2000008c <ADCPrescTable>
    66f0:	9736                	add	a4,a4,a3
    66f2:	00074703          	lbu	a4,0(a4)
    66f6:	02e7d7b3          	divu	a5,a5,a4
    66fa:	c91c                	sw	a5,16(a0)
    66fc:	8082                	ret
    66fe:	435c                	lw	a5,4(a4)
    6700:	4358                	lw	a4,4(a4)
    6702:	66c1                	lui	a3,0x10
    6704:	83c9                	srli	a5,a5,0x12
    6706:	8f75                	and	a4,a4,a3
    6708:	1ffff6b7          	lui	a3,0x1ffff
    670c:	70c6a683          	lw	a3,1804(a3) # 1ffff70c <_data_lma+0x1fff7cb0>
    6710:	8bbd                	andi	a5,a5,15
    6712:	0789                	addi	a5,a5,2
    6714:	01169613          	slli	a2,a3,0x11
    6718:	00064863          	bltz	a2,6728 <RCC_GetClocksFreq+0xa6>
    671c:	46c5                	li	a3,17
    671e:	4601                	li	a2,0
    6720:	02d79263          	bne	a5,a3,6744 <RCC_GetClocksFreq+0xc2>
    6724:	47c9                	li	a5,18
    6726:	a839                	j	6744 <RCC_GetClocksFreq+0xc2>
    6728:	4689                	li	a3,2
    672a:	02d78f63          	beq	a5,a3,6768 <RCC_GetClocksFreq+0xe6>
    672e:	46bd                	li	a3,15
    6730:	02d78e63          	beq	a5,a3,676c <RCC_GetClocksFreq+0xea>
    6734:	46c1                	li	a3,16
    6736:	02d78e63          	beq	a5,a3,6772 <RCC_GetClocksFreq+0xf0>
    673a:	46c5                	li	a3,17
    673c:	4601                	li	a2,0
    673e:	00d79363          	bne	a5,a3,6744 <RCC_GetClocksFreq+0xc2>
    6742:	47c1                	li	a5,16
    6744:	ef1d                	bnez	a4,6782 <RCC_GetClocksFreq+0x100>
    6746:	40024737          	lui	a4,0x40024
    674a:	80072703          	lw	a4,-2048(a4) # 40023800 <_eusrstack+0x2001b800>
    674e:	8b41                	andi	a4,a4,16
    6750:	c705                	beqz	a4,6778 <RCC_GetClocksFreq+0xf6>
    6752:	007a1737          	lui	a4,0x7a1
    6756:	20070713          	addi	a4,a4,512 # 7a1200 <_data_lma+0x7997a4>
    675a:	02f707b3          	mul	a5,a4,a5
    675e:	c11c                	sw	a5,0(a0)
    6760:	d221                	beqz	a2,66a0 <RCC_GetClocksFreq+0x1e>
    6762:	411c                	lw	a5,0(a0)
    6764:	8385                	srli	a5,a5,0x1
    6766:	bf25                	j	669e <RCC_GetClocksFreq+0x1c>
    6768:	4601                	li	a2,0
    676a:	bf6d                	j	6724 <RCC_GetClocksFreq+0xa2>
    676c:	4605                	li	a2,1
    676e:	47b5                	li	a5,13
    6770:	bfd1                	j	6744 <RCC_GetClocksFreq+0xc2>
    6772:	4601                	li	a2,0
    6774:	47bd                	li	a5,15
    6776:	b7f9                	j	6744 <RCC_GetClocksFreq+0xc2>
    6778:	003d1737          	lui	a4,0x3d1
    677c:	90070713          	addi	a4,a4,-1792 # 3d0900 <_data_lma+0x3c8ea4>
    6780:	bfe9                	j	675a <RCC_GetClocksFreq+0xd8>
    6782:	400215b7          	lui	a1,0x40021
    6786:	55d8                	lw	a4,44(a1)
    6788:	00f71693          	slli	a3,a4,0xf
    678c:	55d8                	lw	a4,44(a1)
    678e:	0406df63          	bgez	a3,67ec <RCC_GetClocksFreq+0x16a>
    6792:	8311                	srli	a4,a4,0x4
    6794:	8b3d                	andi	a4,a4,15
    6796:	00170693          	addi	a3,a4,1
    679a:	007a1737          	lui	a4,0x7a1
    679e:	20070713          	addi	a4,a4,512 # 7a1200 <_data_lma+0x7997a4>
    67a2:	02d75733          	divu	a4,a4,a3
    67a6:	c118                	sw	a4,0(a0)
    67a8:	55d4                	lw	a3,44(a1)
    67aa:	82a1                	srli	a3,a3,0x8
    67ac:	8abd                	andi	a3,a3,15
    67ae:	e28d                	bnez	a3,67d0 <RCC_GetClocksFreq+0x14e>
    67b0:	4695                	li	a3,5
    67b2:	02d70733          	mul	a4,a4,a3
    67b6:	8305                	srli	a4,a4,0x1
    67b8:	c118                	sw	a4,0(a0)
    67ba:	40021737          	lui	a4,0x40021
    67be:	5758                	lw	a4,44(a4)
    67c0:	4114                	lw	a3,0(a0)
    67c2:	8b3d                	andi	a4,a4,15
    67c4:	0705                	addi	a4,a4,1
    67c6:	02e6d733          	divu	a4,a3,a4
    67ca:	c118                	sw	a4,0(a0)
    67cc:	4118                	lw	a4,0(a0)
    67ce:	b771                	j	675a <RCC_GetClocksFreq+0xd8>
    67d0:	4585                	li	a1,1
    67d2:	00b69463          	bne	a3,a1,67da <RCC_GetClocksFreq+0x158>
    67d6:	46e5                	li	a3,25
    67d8:	bfe9                	j	67b2 <RCC_GetClocksFreq+0x130>
    67da:	45bd                	li	a1,15
    67dc:	00b69663          	bne	a3,a1,67e8 <RCC_GetClocksFreq+0x166>
    67e0:	46d1                	li	a3,20
    67e2:	02e68733          	mul	a4,a3,a4
    67e6:	bfc9                	j	67b8 <RCC_GetClocksFreq+0x136>
    67e8:	0689                	addi	a3,a3,2
    67ea:	bfe5                	j	67e2 <RCC_GetClocksFreq+0x160>
    67ec:	8b3d                	andi	a4,a4,15
    67ee:	00170693          	addi	a3,a4,1 # 40021001 <_eusrstack+0x20019001>
    67f2:	007a1737          	lui	a4,0x7a1
    67f6:	20070713          	addi	a4,a4,512 # 7a1200 <_data_lma+0x7997a4>
    67fa:	02d75733          	divu	a4,a4,a3
    67fe:	b7f1                	j	67ca <RCC_GetClocksFreq+0x148>

00006800 <RCC_AHBPeriphClockCmd>:
    6800:	c599                	beqz	a1,680e <RCC_AHBPeriphClockCmd+0xe>
    6802:	40021737          	lui	a4,0x40021
    6806:	4b5c                	lw	a5,20(a4)
    6808:	8d5d                	or	a0,a0,a5
    680a:	cb48                	sw	a0,20(a4)
    680c:	8082                	ret
    680e:	400217b7          	lui	a5,0x40021
    6812:	4bd8                	lw	a4,20(a5)
    6814:	fff54513          	not	a0,a0
    6818:	8d79                	and	a0,a0,a4
    681a:	cbc8                	sw	a0,20(a5)
    681c:	8082                	ret

0000681e <RCC_APB2PeriphClockCmd>:
    681e:	c599                	beqz	a1,682c <RCC_APB2PeriphClockCmd+0xe>
    6820:	40021737          	lui	a4,0x40021
    6824:	4f1c                	lw	a5,24(a4)
    6826:	8d5d                	or	a0,a0,a5
    6828:	cf08                	sw	a0,24(a4)
    682a:	8082                	ret
    682c:	400217b7          	lui	a5,0x40021
    6830:	4f98                	lw	a4,24(a5)
    6832:	fff54513          	not	a0,a0
    6836:	8d79                	and	a0,a0,a4
    6838:	cf88                	sw	a0,24(a5)
    683a:	8082                	ret

0000683c <RCC_APB1PeriphClockCmd>:
    683c:	c599                	beqz	a1,684a <RCC_APB1PeriphClockCmd+0xe>
    683e:	40021737          	lui	a4,0x40021
    6842:	4f5c                	lw	a5,28(a4)
    6844:	8d5d                	or	a0,a0,a5
    6846:	cf48                	sw	a0,28(a4)
    6848:	8082                	ret
    684a:	400217b7          	lui	a5,0x40021
    684e:	4fd8                	lw	a4,28(a5)
    6850:	fff54513          	not	a0,a0
    6854:	8d79                	and	a0,a0,a4
    6856:	cfc8                	sw	a0,28(a5)
    6858:	8082                	ret

0000685a <RCC_USBHSConfig>:
    685a:	400217b7          	lui	a5,0x40021
    685e:	57d8                	lw	a4,44(a5)
    6860:	f90006b7          	lui	a3,0xf9000
    6864:	16fd                	addi	a3,a3,-1
    6866:	8f75                	and	a4,a4,a3
    6868:	d7d8                	sw	a4,44(a5)
    686a:	57d8                	lw	a4,44(a5)
    686c:	0562                	slli	a0,a0,0x18
    686e:	8d59                	or	a0,a0,a4
    6870:	d7c8                	sw	a0,44(a5)
    6872:	8082                	ret

00006874 <RCC_USBHSPLLCLKConfig>:
    6874:	400217b7          	lui	a5,0x40021
    6878:	57d8                	lw	a4,44(a5)
    687a:	f80006b7          	lui	a3,0xf8000
    687e:	16fd                	addi	a3,a3,-1
    6880:	8f75                	and	a4,a4,a3
    6882:	d7d8                	sw	a4,44(a5)
    6884:	57d8                	lw	a4,44(a5)
    6886:	056e                	slli	a0,a0,0x1b
    6888:	8d59                	or	a0,a0,a4
    688a:	d7c8                	sw	a0,44(a5)
    688c:	8082                	ret

0000688e <RCC_USBHSPLLCKREFCLKConfig>:
    688e:	400217b7          	lui	a5,0x40021
    6892:	57d8                	lw	a4,44(a5)
    6894:	d00006b7          	lui	a3,0xd0000
    6898:	16fd                	addi	a3,a3,-1
    689a:	8f75                	and	a4,a4,a3
    689c:	d7d8                	sw	a4,44(a5)
    689e:	57d8                	lw	a4,44(a5)
    68a0:	0572                	slli	a0,a0,0x1c
    68a2:	8d59                	or	a0,a0,a4
    68a4:	d7c8                	sw	a0,44(a5)
    68a6:	8082                	ret

000068a8 <RCC_USBHSPHYPLLALIVEcmd>:
    68a8:	c909                	beqz	a0,68ba <RCC_USBHSPHYPLLALIVEcmd+0x12>
    68aa:	40021737          	lui	a4,0x40021
    68ae:	575c                	lw	a5,44(a4)
    68b0:	400006b7          	lui	a3,0x40000
    68b4:	8fd5                	or	a5,a5,a3
    68b6:	d75c                	sw	a5,44(a4)
    68b8:	8082                	ret
    68ba:	400216b7          	lui	a3,0x40021
    68be:	56dc                	lw	a5,44(a3)
    68c0:	c0000737          	lui	a4,0xc0000
    68c4:	177d                	addi	a4,a4,-1
    68c6:	8ff9                	and	a5,a5,a4
    68c8:	d6dc                	sw	a5,44(a3)
    68ca:	8082                	ret

000068cc <RCC_USBCLK48MConfig>:
    68cc:	40021737          	lui	a4,0x40021
    68d0:	575c                	lw	a5,44(a4)
    68d2:	057e                	slli	a0,a0,0x1f
    68d4:	0786                	slli	a5,a5,0x1
    68d6:	8385                	srli	a5,a5,0x1
    68d8:	d75c                	sw	a5,44(a4)
    68da:	575c                	lw	a5,44(a4)
    68dc:	8d5d                	or	a0,a0,a5
    68de:	d748                	sw	a0,44(a4)
    68e0:	8082                	ret

000068e2 <TIM_TimeBaseInit>:
    68e2:	00055783          	lhu	a5,0(a0)
    68e6:	40013737          	lui	a4,0x40013
    68ea:	c0070693          	addi	a3,a4,-1024 # 40012c00 <_eusrstack+0x2000ac00>
    68ee:	07c2                	slli	a5,a5,0x10
    68f0:	83c1                	srli	a5,a5,0x10
    68f2:	04d50063          	beq	a0,a3,6932 <TIM_TimeBaseInit+0x50>
    68f6:	400006b7          	lui	a3,0x40000
    68fa:	02d50c63          	beq	a0,a3,6932 <TIM_TimeBaseInit+0x50>
    68fe:	40068693          	addi	a3,a3,1024 # 40000400 <_eusrstack+0x1fff8400>
    6902:	02d50863          	beq	a0,a3,6932 <TIM_TimeBaseInit+0x50>
    6906:	400016b7          	lui	a3,0x40001
    690a:	80068613          	addi	a2,a3,-2048 # 40000800 <_eusrstack+0x1fff8800>
    690e:	02c50263          	beq	a0,a2,6932 <TIM_TimeBaseInit+0x50>
    6912:	c0068693          	addi	a3,a3,-1024
    6916:	00d50e63          	beq	a0,a3,6932 <TIM_TimeBaseInit+0x50>
    691a:	40070713          	addi	a4,a4,1024
    691e:	00e50a63          	beq	a0,a4,6932 <TIM_TimeBaseInit+0x50>
    6922:	40015737          	lui	a4,0x40015
    6926:	c0070693          	addi	a3,a4,-1024 # 40014c00 <_eusrstack+0x2000cc00>
    692a:	00d50463          	beq	a0,a3,6932 <TIM_TimeBaseInit+0x50>
    692e:	00e51763          	bne	a0,a4,693c <TIM_TimeBaseInit+0x5a>
    6932:	0025d703          	lhu	a4,2(a1) # 40021002 <_eusrstack+0x20019002>
    6936:	f8f7f793          	andi	a5,a5,-113
    693a:	8fd9                	or	a5,a5,a4
    693c:	40001737          	lui	a4,0x40001
    6940:	00e50d63          	beq	a0,a4,695a <TIM_TimeBaseInit+0x78>
    6944:	40070713          	addi	a4,a4,1024 # 40001400 <_eusrstack+0x1fff9400>
    6948:	00e50963          	beq	a0,a4,695a <TIM_TimeBaseInit+0x78>
    694c:	cff7f793          	andi	a5,a5,-769
    6950:	0065d703          	lhu	a4,6(a1)
    6954:	07c2                	slli	a5,a5,0x10
    6956:	83c1                	srli	a5,a5,0x10
    6958:	8fd9                	or	a5,a5,a4
    695a:	00f51023          	sh	a5,0(a0)
    695e:	0045d783          	lhu	a5,4(a1)
    6962:	02f51623          	sh	a5,44(a0)
    6966:	0005d783          	lhu	a5,0(a1)
    696a:	02f51423          	sh	a5,40(a0)
    696e:	400137b7          	lui	a5,0x40013
    6972:	c0078713          	addi	a4,a5,-1024 # 40012c00 <_eusrstack+0x2000ac00>
    6976:	00e50e63          	beq	a0,a4,6992 <TIM_TimeBaseInit+0xb0>
    697a:	40078793          	addi	a5,a5,1024
    697e:	00f50a63          	beq	a0,a5,6992 <TIM_TimeBaseInit+0xb0>
    6982:	400157b7          	lui	a5,0x40015
    6986:	c0078713          	addi	a4,a5,-1024 # 40014c00 <_eusrstack+0x2000cc00>
    698a:	00e50463          	beq	a0,a4,6992 <TIM_TimeBaseInit+0xb0>
    698e:	00f51663          	bne	a0,a5,699a <TIM_TimeBaseInit+0xb8>
    6992:	0085c783          	lbu	a5,8(a1)
    6996:	02f51823          	sh	a5,48(a0)
    699a:	4785                	li	a5,1
    699c:	00f51a23          	sh	a5,20(a0)
    69a0:	8082                	ret

000069a2 <TIM_Cmd>:
    69a2:	00055783          	lhu	a5,0(a0)
    69a6:	c591                	beqz	a1,69b2 <TIM_Cmd+0x10>
    69a8:	0017e793          	ori	a5,a5,1
    69ac:	00f51023          	sh	a5,0(a0)
    69b0:	8082                	ret
    69b2:	07c2                	slli	a5,a5,0x10
    69b4:	83c1                	srli	a5,a5,0x10
    69b6:	9bf9                	andi	a5,a5,-2
    69b8:	07c2                	slli	a5,a5,0x10
    69ba:	83c1                	srli	a5,a5,0x10
    69bc:	bfc5                	j	69ac <TIM_Cmd+0xa>

000069be <TIM_ITConfig>:
    69be:	00c55783          	lhu	a5,12(a0)
    69c2:	c609                	beqz	a2,69cc <TIM_ITConfig+0xe>
    69c4:	8ddd                	or	a1,a1,a5
    69c6:	00b51623          	sh	a1,12(a0)
    69ca:	8082                	ret
    69cc:	fff5c593          	not	a1,a1
    69d0:	8dfd                	and	a1,a1,a5
    69d2:	bfd5                	j	69c6 <TIM_ITConfig+0x8>

000069d4 <TIM_GetITStatus>:
    69d4:	01055783          	lhu	a5,16(a0)
    69d8:	00c55503          	lhu	a0,12(a0)
    69dc:	8fed                	and	a5,a5,a1
    69de:	0542                	slli	a0,a0,0x10
    69e0:	8141                	srli	a0,a0,0x10
    69e2:	c789                	beqz	a5,69ec <TIM_GetITStatus+0x18>
    69e4:	8d6d                	and	a0,a0,a1
    69e6:	00a03533          	snez	a0,a0
    69ea:	8082                	ret
    69ec:	4501                	li	a0,0
    69ee:	8082                	ret

000069f0 <TIM_ClearITPendingBit>:
    69f0:	fff5c593          	not	a1,a1
    69f4:	05c2                	slli	a1,a1,0x10
    69f6:	81c1                	srli	a1,a1,0x10
    69f8:	00b51823          	sh	a1,16(a0)
    69fc:	8082                	ret

000069fe <USART_Init>:
    69fe:	01055683          	lhu	a3,16(a0)
    6a02:	77f5                	lui	a5,0xffffd
    6a04:	17fd                	addi	a5,a5,-1
    6a06:	8ff5                	and	a5,a5,a3
    6a08:	0065d683          	lhu	a3,6(a1)
    6a0c:	7139                	addi	sp,sp,-64
    6a0e:	dc22                	sw	s0,56(sp)
    6a10:	de06                	sw	ra,60(sp)
    6a12:	8fd5                	or	a5,a5,a3
    6a14:	00c5d703          	lhu	a4,12(a1)
    6a18:	00f51823          	sh	a5,16(a0)
    6a1c:	00c55683          	lhu	a3,12(a0)
    6a20:	77fd                	lui	a5,0xfffff
    6a22:	9f378793          	addi	a5,a5,-1549 # ffffe9f3 <_eusrstack+0xdfff69f3>
    6a26:	8ff5                	and	a5,a5,a3
    6a28:	0045d683          	lhu	a3,4(a1)
    6a2c:	842a                	mv	s0,a0
    6a2e:	c62e                	sw	a1,12(sp)
    6a30:	8fd5                	or	a5,a5,a3
    6a32:	0085d683          	lhu	a3,8(a1)
    6a36:	8fd5                	or	a5,a5,a3
    6a38:	00a5d683          	lhu	a3,10(a1)
    6a3c:	8fd5                	or	a5,a5,a3
    6a3e:	00f51623          	sh	a5,12(a0)
    6a42:	01455783          	lhu	a5,20(a0)
    6a46:	07c2                	slli	a5,a5,0x10
    6a48:	83c1                	srli	a5,a5,0x10
    6a4a:	cff7f793          	andi	a5,a5,-769
    6a4e:	8fd9                	or	a5,a5,a4
    6a50:	00f51a23          	sh	a5,20(a0)
    6a54:	0868                	addi	a0,sp,28
    6a56:	3135                	jal	6682 <RCC_GetClocksFreq>
    6a58:	400147b7          	lui	a5,0x40014
    6a5c:	80078793          	addi	a5,a5,-2048 # 40013800 <_eusrstack+0x2000b800>
    6a60:	45b2                	lw	a1,12(sp)
    6a62:	04f41e63          	bne	s0,a5,6abe <USART_Init+0xc0>
    6a66:	57a2                	lw	a5,40(sp)
    6a68:	00c45683          	lhu	a3,12(s0)
    6a6c:	4765                	li	a4,25
    6a6e:	02e787b3          	mul	a5,a5,a4
    6a72:	06c2                	slli	a3,a3,0x10
    6a74:	86c1                	srai	a3,a3,0x10
    6a76:	4198                	lw	a4,0(a1)
    6a78:	0406d563          	bgez	a3,6ac2 <USART_Init+0xc4>
    6a7c:	0706                	slli	a4,a4,0x1
    6a7e:	00c45603          	lhu	a2,12(s0)
    6a82:	0642                	slli	a2,a2,0x10
    6a84:	02e7d7b3          	divu	a5,a5,a4
    6a88:	06400713          	li	a4,100
    6a8c:	8641                	srai	a2,a2,0x10
    6a8e:	02e7d6b3          	divu	a3,a5,a4
    6a92:	02e7f7b3          	remu	a5,a5,a4
    6a96:	0692                	slli	a3,a3,0x4
    6a98:	02065763          	bgez	a2,6ac6 <USART_Init+0xc8>
    6a9c:	078e                	slli	a5,a5,0x3
    6a9e:	03278793          	addi	a5,a5,50
    6aa2:	02e7d7b3          	divu	a5,a5,a4
    6aa6:	0077f713          	andi	a4,a5,7
    6aaa:	00d767b3          	or	a5,a4,a3
    6aae:	07c2                	slli	a5,a5,0x10
    6ab0:	83c1                	srli	a5,a5,0x10
    6ab2:	00f41423          	sh	a5,8(s0)
    6ab6:	50f2                	lw	ra,60(sp)
    6ab8:	5462                	lw	s0,56(sp)
    6aba:	6121                	addi	sp,sp,64
    6abc:	8082                	ret
    6abe:	5792                	lw	a5,36(sp)
    6ac0:	b765                	j	6a68 <USART_Init+0x6a>
    6ac2:	070a                	slli	a4,a4,0x2
    6ac4:	bf6d                	j	6a7e <USART_Init+0x80>
    6ac6:	0792                	slli	a5,a5,0x4
    6ac8:	03278793          	addi	a5,a5,50
    6acc:	02e7d7b3          	divu	a5,a5,a4
    6ad0:	8bbd                	andi	a5,a5,15
    6ad2:	8fd5                	or	a5,a5,a3
    6ad4:	bfe9                	j	6aae <USART_Init+0xb0>

00006ad6 <USART_Cmd>:
    6ad6:	c981                	beqz	a1,6ae6 <USART_Cmd+0x10>
    6ad8:	00c55783          	lhu	a5,12(a0)
    6adc:	6709                	lui	a4,0x2
    6ade:	8fd9                	or	a5,a5,a4
    6ae0:	00f51623          	sh	a5,12(a0)
    6ae4:	8082                	ret
    6ae6:	00c55703          	lhu	a4,12(a0)
    6aea:	77f9                	lui	a5,0xffffe
    6aec:	17fd                	addi	a5,a5,-1
    6aee:	8ff9                	and	a5,a5,a4
    6af0:	bfc5                	j	6ae0 <USART_Cmd+0xa>

00006af2 <USART_SendData>:
    6af2:	1ff5f593          	andi	a1,a1,511
    6af6:	00b51223          	sh	a1,4(a0)
    6afa:	8082                	ret

00006afc <USART_GetFlagStatus>:
    6afc:	00055503          	lhu	a0,0(a0)
    6b00:	8d6d                	and	a0,a0,a1
    6b02:	00a03533          	snez	a0,a0
    6b06:	8082                	ret

00006b08 <Delay_Init>:
    6b08:	200007b7          	lui	a5,0x20000
    6b0c:	0807a783          	lw	a5,128(a5) # 20000080 <SystemCoreClock>
    6b10:	007a1737          	lui	a4,0x7a1
    6b14:	20070713          	addi	a4,a4,512 # 7a1200 <_data_lma+0x7997a4>
    6b18:	02e7d7b3          	divu	a5,a5,a4
    6b1c:	0ff7f793          	andi	a5,a5,255
    6b20:	82f18b23          	sb	a5,-1994(gp) # 200000b6 <p_us>
    6b24:	3e800713          	li	a4,1000
    6b28:	02e787b3          	mul	a5,a5,a4
    6b2c:	82f19a23          	sh	a5,-1996(gp) # 200000b4 <p_ms>
    6b30:	8082                	ret

00006b32 <Delay_Us>:
    6b32:	e000f7b7          	lui	a5,0xe000f
    6b36:	43d8                	lw	a4,4(a5)
    6b38:	4681                	li	a3,0
    6b3a:	9b79                	andi	a4,a4,-2
    6b3c:	c3d8                	sw	a4,4(a5)
    6b3e:	8361c703          	lbu	a4,-1994(gp) # 200000b6 <p_us>
    6b42:	02a70633          	mul	a2,a4,a0
    6b46:	cb90                	sw	a2,16(a5)
    6b48:	cbd4                	sw	a3,20(a5)
    6b4a:	4398                	lw	a4,0(a5)
    6b4c:	01076713          	ori	a4,a4,16
    6b50:	c398                	sw	a4,0(a5)
    6b52:	4398                	lw	a4,0(a5)
    6b54:	02176713          	ori	a4,a4,33
    6b58:	c398                	sw	a4,0(a5)
    6b5a:	43d8                	lw	a4,4(a5)
    6b5c:	8b05                	andi	a4,a4,1
    6b5e:	df75                	beqz	a4,6b5a <Delay_Us+0x28>
    6b60:	4398                	lw	a4,0(a5)
    6b62:	9b79                	andi	a4,a4,-2
    6b64:	c398                	sw	a4,0(a5)
    6b66:	8082                	ret

00006b68 <Delay_Ms>:
    6b68:	e000f7b7          	lui	a5,0xe000f
    6b6c:	43d8                	lw	a4,4(a5)
    6b6e:	4681                	li	a3,0
    6b70:	9b79                	andi	a4,a4,-2
    6b72:	c3d8                	sw	a4,4(a5)
    6b74:	8341d703          	lhu	a4,-1996(gp) # 200000b4 <p_ms>
    6b78:	02a70633          	mul	a2,a4,a0
    6b7c:	cb90                	sw	a2,16(a5)
    6b7e:	cbd4                	sw	a3,20(a5)
    6b80:	4398                	lw	a4,0(a5)
    6b82:	01076713          	ori	a4,a4,16
    6b86:	c398                	sw	a4,0(a5)
    6b88:	4398                	lw	a4,0(a5)
    6b8a:	02176713          	ori	a4,a4,33
    6b8e:	c398                	sw	a4,0(a5)
    6b90:	43d8                	lw	a4,4(a5)
    6b92:	8b05                	andi	a4,a4,1
    6b94:	df75                	beqz	a4,6b90 <Delay_Ms+0x28>
    6b96:	4398                	lw	a4,0(a5)
    6b98:	9b79                	andi	a4,a4,-2
    6b9a:	c398                	sw	a4,0(a5)
    6b9c:	8082                	ret

00006b9e <USART_Printf_Init>:
    6b9e:	7179                	addi	sp,sp,-48
    6ba0:	d422                	sw	s0,40(sp)
    6ba2:	842a                	mv	s0,a0
    6ba4:	6511                	lui	a0,0x4
    6ba6:	4585                	li	a1,1
    6ba8:	0511                	addi	a0,a0,4
    6baa:	d606                	sw	ra,44(sp)
    6bac:	398d                	jal	681e <RCC_APB2PeriphClockCmd>
    6bae:	20000793          	li	a5,512
    6bb2:	00f11223          	sh	a5,4(sp)
    6bb6:	40011537          	lui	a0,0x40011
    6bba:	478d                	li	a5,3
    6bbc:	c43e                	sw	a5,8(sp)
    6bbe:	004c                	addi	a1,sp,4
    6bc0:	47e1                	li	a5,24
    6bc2:	80050513          	addi	a0,a0,-2048 # 40010800 <_eusrstack+0x20008800>
    6bc6:	c63e                	sw	a5,12(sp)
    6bc8:	8f9ff0ef          	jal	ra,64c0 <GPIO_Init>
    6bcc:	c822                	sw	s0,16(sp)
    6bce:	40014437          	lui	s0,0x40014
    6bd2:	000807b7          	lui	a5,0x80
    6bd6:	080c                	addi	a1,sp,16
    6bd8:	80040513          	addi	a0,s0,-2048 # 40013800 <_eusrstack+0x2000b800>
    6bdc:	cc3e                	sw	a5,24(sp)
    6bde:	ca02                	sw	zero,20(sp)
    6be0:	00011e23          	sh	zero,28(sp)
    6be4:	3d29                	jal	69fe <USART_Init>
    6be6:	80040513          	addi	a0,s0,-2048
    6bea:	4585                	li	a1,1
    6bec:	35ed                	jal	6ad6 <USART_Cmd>
    6bee:	50b2                	lw	ra,44(sp)
    6bf0:	5422                	lw	s0,40(sp)
    6bf2:	6145                	addi	sp,sp,48
    6bf4:	8082                	ret

00006bf6 <_write>:
    6bf6:	1101                	addi	sp,sp,-32
    6bf8:	ca26                	sw	s1,20(sp)
    6bfa:	400144b7          	lui	s1,0x40014
    6bfe:	cc22                	sw	s0,24(sp)
    6c00:	c84a                	sw	s2,16(sp)
    6c02:	c64e                	sw	s3,12(sp)
    6c04:	ce06                	sw	ra,28(sp)
    6c06:	89ae                	mv	s3,a1
    6c08:	8932                	mv	s2,a2
    6c0a:	4401                	li	s0,0
    6c0c:	80048493          	addi	s1,s1,-2048 # 40013800 <_eusrstack+0x2000b800>
    6c10:	01244a63          	blt	s0,s2,6c24 <_write+0x2e>
    6c14:	40f2                	lw	ra,28(sp)
    6c16:	4462                	lw	s0,24(sp)
    6c18:	854a                	mv	a0,s2
    6c1a:	44d2                	lw	s1,20(sp)
    6c1c:	4942                	lw	s2,16(sp)
    6c1e:	49b2                	lw	s3,12(sp)
    6c20:	6105                	addi	sp,sp,32
    6c22:	8082                	ret
    6c24:	04000593          	li	a1,64
    6c28:	8526                	mv	a0,s1
    6c2a:	3dc9                	jal	6afc <USART_GetFlagStatus>
    6c2c:	dd65                	beqz	a0,6c24 <_write+0x2e>
    6c2e:	008987b3          	add	a5,s3,s0
    6c32:	00078583          	lb	a1,0(a5) # 80000 <_data_lma+0x785a4>
    6c36:	8526                	mv	a0,s1
    6c38:	0405                	addi	s0,s0,1
    6c3a:	05c2                	slli	a1,a1,0x10
    6c3c:	81c1                	srli	a1,a1,0x10
    6c3e:	3d55                	jal	6af2 <USART_SendData>
    6c40:	bfc1                	j	6c10 <_write+0x1a>

00006c42 <_sbrk>:
    6c42:	81018713          	addi	a4,gp,-2032 # 20000090 <curbrk.5218>
    6c46:	431c                	lw	a5,0(a4)
    6c48:	cb018693          	addi	a3,gp,-848 # 20000530 <_ebss>
    6c4c:	953e                	add	a0,a0,a5
    6c4e:	00d56b63          	bltu	a0,a3,6c64 <_sbrk+0x22>
    6c52:	200086b7          	lui	a3,0x20008
    6c56:	80068693          	addi	a3,a3,-2048 # 20007800 <_heap_end>
    6c5a:	00a6e563          	bltu	a3,a0,6c64 <_sbrk+0x22>
    6c5e:	c308                	sw	a0,0(a4)
    6c60:	853e                	mv	a0,a5
    6c62:	8082                	ret
    6c64:	57fd                	li	a5,-1
    6c66:	bfed                	j	6c60 <_sbrk+0x1e>

00006c68 <memcpy>:
    6c68:	00a5c7b3          	xor	a5,a1,a0
    6c6c:	8b8d                	andi	a5,a5,3
    6c6e:	00c50733          	add	a4,a0,a2
    6c72:	e781                	bnez	a5,6c7a <memcpy+0x12>
    6c74:	478d                	li	a5,3
    6c76:	00c7ee63          	bltu	a5,a2,6c92 <memcpy+0x2a>
    6c7a:	87aa                	mv	a5,a0
    6c7c:	0ae57063          	bgeu	a0,a4,6d1c <memcpy+0xb4>
    6c80:	0005c683          	lbu	a3,0(a1)
    6c84:	0785                	addi	a5,a5,1
    6c86:	0585                	addi	a1,a1,1
    6c88:	fed78fa3          	sb	a3,-1(a5)
    6c8c:	fee7eae3          	bltu	a5,a4,6c80 <memcpy+0x18>
    6c90:	8082                	ret
    6c92:	00357693          	andi	a3,a0,3
    6c96:	87aa                	mv	a5,a0
    6c98:	ca91                	beqz	a3,6cac <memcpy+0x44>
    6c9a:	0005c683          	lbu	a3,0(a1)
    6c9e:	0785                	addi	a5,a5,1
    6ca0:	0585                	addi	a1,a1,1
    6ca2:	fed78fa3          	sb	a3,-1(a5)
    6ca6:	0037f693          	andi	a3,a5,3
    6caa:	b7fd                	j	6c98 <memcpy+0x30>
    6cac:	ffc77693          	andi	a3,a4,-4
    6cb0:	fe068613          	addi	a2,a3,-32
    6cb4:	06c7f063          	bgeu	a5,a2,6d14 <memcpy+0xac>
    6cb8:	0005a383          	lw	t2,0(a1)
    6cbc:	0045a283          	lw	t0,4(a1)
    6cc0:	0085af83          	lw	t6,8(a1)
    6cc4:	00c5af03          	lw	t5,12(a1)
    6cc8:	0105ae83          	lw	t4,16(a1)
    6ccc:	0145ae03          	lw	t3,20(a1)
    6cd0:	0185a303          	lw	t1,24(a1)
    6cd4:	01c5a883          	lw	a7,28(a1)
    6cd8:	02458593          	addi	a1,a1,36
    6cdc:	0077a023          	sw	t2,0(a5)
    6ce0:	ffc5a803          	lw	a6,-4(a1)
    6ce4:	0057a223          	sw	t0,4(a5)
    6ce8:	01f7a423          	sw	t6,8(a5)
    6cec:	01e7a623          	sw	t5,12(a5)
    6cf0:	01d7a823          	sw	t4,16(a5)
    6cf4:	01c7aa23          	sw	t3,20(a5)
    6cf8:	0067ac23          	sw	t1,24(a5)
    6cfc:	0117ae23          	sw	a7,28(a5)
    6d00:	02478793          	addi	a5,a5,36
    6d04:	ff07ae23          	sw	a6,-4(a5)
    6d08:	b775                	j	6cb4 <memcpy+0x4c>
    6d0a:	4190                	lw	a2,0(a1)
    6d0c:	0791                	addi	a5,a5,4
    6d0e:	0591                	addi	a1,a1,4
    6d10:	fec7ae23          	sw	a2,-4(a5)
    6d14:	fed7ebe3          	bltu	a5,a3,6d0a <memcpy+0xa2>
    6d18:	f6e7e4e3          	bltu	a5,a4,6c80 <memcpy+0x18>
    6d1c:	8082                	ret

00006d1e <_puts_r>:
    6d1e:	1101                	addi	sp,sp,-32
    6d20:	ca26                	sw	s1,20(sp)
    6d22:	c84a                	sw	s2,16(sp)
    6d24:	ce06                	sw	ra,28(sp)
    6d26:	cc22                	sw	s0,24(sp)
    6d28:	c64e                	sw	s3,12(sp)
    6d2a:	c452                	sw	s4,8(sp)
    6d2c:	84aa                	mv	s1,a0
    6d2e:	892e                	mv	s2,a1
    6d30:	c501                	beqz	a0,6d38 <_puts_r+0x1a>
    6d32:	4d1c                	lw	a5,24(a0)
    6d34:	e391                	bnez	a5,6d38 <_puts_r+0x1a>
    6d36:	29cd                	jal	7228 <__sinit>
    6d38:	4c9c                	lw	a5,24(s1)
    6d3a:	4480                	lw	s0,8(s1)
    6d3c:	e399                	bnez	a5,6d42 <_puts_r+0x24>
    6d3e:	8526                	mv	a0,s1
    6d40:	21e5                	jal	7228 <__sinit>
    6d42:	00001797          	auipc	a5,0x1
    6d46:	cda78793          	addi	a5,a5,-806 # 7a1c <__sf_fake_stdin>
    6d4a:	02f41c63          	bne	s0,a5,6d82 <_puts_r+0x64>
    6d4e:	40c0                	lw	s0,4(s1)
    6d50:	00c45783          	lhu	a5,12(s0)
    6d54:	8ba1                	andi	a5,a5,8
    6d56:	c7b1                	beqz	a5,6da2 <_puts_r+0x84>
    6d58:	481c                	lw	a5,16(s0)
    6d5a:	c7a1                	beqz	a5,6da2 <_puts_r+0x84>
    6d5c:	59fd                	li	s3,-1
    6d5e:	4a29                	li	s4,10
    6d60:	441c                	lw	a5,8(s0)
    6d62:	00094583          	lbu	a1,0(s2)
    6d66:	17fd                	addi	a5,a5,-1
    6d68:	e9b1                	bnez	a1,6dbc <_puts_r+0x9e>
    6d6a:	c41c                	sw	a5,8(s0)
    6d6c:	0607de63          	bgez	a5,6de8 <_puts_r+0xca>
    6d70:	8622                	mv	a2,s0
    6d72:	45a9                	li	a1,10
    6d74:	8526                	mv	a0,s1
    6d76:	2071                	jal	6e02 <__swbuf_r>
    6d78:	57fd                	li	a5,-1
    6d7a:	02f50863          	beq	a0,a5,6daa <_puts_r+0x8c>
    6d7e:	4529                	li	a0,10
    6d80:	a035                	j	6dac <_puts_r+0x8e>
    6d82:	00001797          	auipc	a5,0x1
    6d86:	cba78793          	addi	a5,a5,-838 # 7a3c <__sf_fake_stdout>
    6d8a:	00f41463          	bne	s0,a5,6d92 <_puts_r+0x74>
    6d8e:	4480                	lw	s0,8(s1)
    6d90:	b7c1                	j	6d50 <_puts_r+0x32>
    6d92:	00001797          	auipc	a5,0x1
    6d96:	c6a78793          	addi	a5,a5,-918 # 79fc <__sf_fake_stderr>
    6d9a:	faf41be3          	bne	s0,a5,6d50 <_puts_r+0x32>
    6d9e:	44c0                	lw	s0,12(s1)
    6da0:	bf45                	j	6d50 <_puts_r+0x32>
    6da2:	85a2                	mv	a1,s0
    6da4:	8526                	mv	a0,s1
    6da6:	2a31                	jal	6ec2 <__swsetup_r>
    6da8:	d955                	beqz	a0,6d5c <_puts_r+0x3e>
    6daa:	557d                	li	a0,-1
    6dac:	40f2                	lw	ra,28(sp)
    6dae:	4462                	lw	s0,24(sp)
    6db0:	44d2                	lw	s1,20(sp)
    6db2:	4942                	lw	s2,16(sp)
    6db4:	49b2                	lw	s3,12(sp)
    6db6:	4a22                	lw	s4,8(sp)
    6db8:	6105                	addi	sp,sp,32
    6dba:	8082                	ret
    6dbc:	c41c                	sw	a5,8(s0)
    6dbe:	0905                	addi	s2,s2,1
    6dc0:	0007d763          	bgez	a5,6dce <_puts_r+0xb0>
    6dc4:	4c18                	lw	a4,24(s0)
    6dc6:	00e7cb63          	blt	a5,a4,6ddc <_puts_r+0xbe>
    6dca:	01458963          	beq	a1,s4,6ddc <_puts_r+0xbe>
    6dce:	401c                	lw	a5,0(s0)
    6dd0:	00178713          	addi	a4,a5,1
    6dd4:	c018                	sw	a4,0(s0)
    6dd6:	00b78023          	sb	a1,0(a5)
    6dda:	b759                	j	6d60 <_puts_r+0x42>
    6ddc:	8622                	mv	a2,s0
    6dde:	8526                	mv	a0,s1
    6de0:	200d                	jal	6e02 <__swbuf_r>
    6de2:	f7351fe3          	bne	a0,s3,6d60 <_puts_r+0x42>
    6de6:	b7d1                	j	6daa <_puts_r+0x8c>
    6de8:	401c                	lw	a5,0(s0)
    6dea:	00178713          	addi	a4,a5,1
    6dee:	c018                	sw	a4,0(s0)
    6df0:	4729                	li	a4,10
    6df2:	00e78023          	sb	a4,0(a5)
    6df6:	b761                	j	6d7e <_puts_r+0x60>

00006df8 <puts>:
    6df8:	81418793          	addi	a5,gp,-2028 # 20000094 <_impure_ptr>
    6dfc:	85aa                	mv	a1,a0
    6dfe:	4388                	lw	a0,0(a5)
    6e00:	bf39                	j	6d1e <_puts_r>

00006e02 <__swbuf_r>:
    6e02:	1101                	addi	sp,sp,-32
    6e04:	cc22                	sw	s0,24(sp)
    6e06:	ca26                	sw	s1,20(sp)
    6e08:	c84a                	sw	s2,16(sp)
    6e0a:	ce06                	sw	ra,28(sp)
    6e0c:	c64e                	sw	s3,12(sp)
    6e0e:	84aa                	mv	s1,a0
    6e10:	892e                	mv	s2,a1
    6e12:	8432                	mv	s0,a2
    6e14:	c501                	beqz	a0,6e1c <__swbuf_r+0x1a>
    6e16:	4d1c                	lw	a5,24(a0)
    6e18:	e391                	bnez	a5,6e1c <__swbuf_r+0x1a>
    6e1a:	2139                	jal	7228 <__sinit>
    6e1c:	00001797          	auipc	a5,0x1
    6e20:	c0078793          	addi	a5,a5,-1024 # 7a1c <__sf_fake_stdin>
    6e24:	06f41963          	bne	s0,a5,6e96 <__swbuf_r+0x94>
    6e28:	40c0                	lw	s0,4(s1)
    6e2a:	4c1c                	lw	a5,24(s0)
    6e2c:	c41c                	sw	a5,8(s0)
    6e2e:	00c45783          	lhu	a5,12(s0)
    6e32:	8ba1                	andi	a5,a5,8
    6e34:	c3c9                	beqz	a5,6eb6 <__swbuf_r+0xb4>
    6e36:	481c                	lw	a5,16(s0)
    6e38:	cfbd                	beqz	a5,6eb6 <__swbuf_r+0xb4>
    6e3a:	481c                	lw	a5,16(s0)
    6e3c:	4008                	lw	a0,0(s0)
    6e3e:	0ff97993          	andi	s3,s2,255
    6e42:	0ff97913          	andi	s2,s2,255
    6e46:	8d1d                	sub	a0,a0,a5
    6e48:	485c                	lw	a5,20(s0)
    6e4a:	00f54663          	blt	a0,a5,6e56 <__swbuf_r+0x54>
    6e4e:	85a2                	mv	a1,s0
    6e50:	8526                	mv	a0,s1
    6e52:	2c65                	jal	710a <_fflush_r>
    6e54:	e52d                	bnez	a0,6ebe <__swbuf_r+0xbc>
    6e56:	441c                	lw	a5,8(s0)
    6e58:	0505                	addi	a0,a0,1
    6e5a:	17fd                	addi	a5,a5,-1
    6e5c:	c41c                	sw	a5,8(s0)
    6e5e:	401c                	lw	a5,0(s0)
    6e60:	00178713          	addi	a4,a5,1
    6e64:	c018                	sw	a4,0(s0)
    6e66:	01378023          	sb	s3,0(a5)
    6e6a:	485c                	lw	a5,20(s0)
    6e6c:	00a78963          	beq	a5,a0,6e7e <__swbuf_r+0x7c>
    6e70:	00c45783          	lhu	a5,12(s0)
    6e74:	8b85                	andi	a5,a5,1
    6e76:	cb81                	beqz	a5,6e86 <__swbuf_r+0x84>
    6e78:	47a9                	li	a5,10
    6e7a:	00f91663          	bne	s2,a5,6e86 <__swbuf_r+0x84>
    6e7e:	85a2                	mv	a1,s0
    6e80:	8526                	mv	a0,s1
    6e82:	2461                	jal	710a <_fflush_r>
    6e84:	ed0d                	bnez	a0,6ebe <__swbuf_r+0xbc>
    6e86:	40f2                	lw	ra,28(sp)
    6e88:	4462                	lw	s0,24(sp)
    6e8a:	854a                	mv	a0,s2
    6e8c:	44d2                	lw	s1,20(sp)
    6e8e:	4942                	lw	s2,16(sp)
    6e90:	49b2                	lw	s3,12(sp)
    6e92:	6105                	addi	sp,sp,32
    6e94:	8082                	ret
    6e96:	00001797          	auipc	a5,0x1
    6e9a:	ba678793          	addi	a5,a5,-1114 # 7a3c <__sf_fake_stdout>
    6e9e:	00f41463          	bne	s0,a5,6ea6 <__swbuf_r+0xa4>
    6ea2:	4480                	lw	s0,8(s1)
    6ea4:	b759                	j	6e2a <__swbuf_r+0x28>
    6ea6:	00001797          	auipc	a5,0x1
    6eaa:	b5678793          	addi	a5,a5,-1194 # 79fc <__sf_fake_stderr>
    6eae:	f6f41ee3          	bne	s0,a5,6e2a <__swbuf_r+0x28>
    6eb2:	44c0                	lw	s0,12(s1)
    6eb4:	bf9d                	j	6e2a <__swbuf_r+0x28>
    6eb6:	85a2                	mv	a1,s0
    6eb8:	8526                	mv	a0,s1
    6eba:	2021                	jal	6ec2 <__swsetup_r>
    6ebc:	dd3d                	beqz	a0,6e3a <__swbuf_r+0x38>
    6ebe:	597d                	li	s2,-1
    6ec0:	b7d9                	j	6e86 <__swbuf_r+0x84>

00006ec2 <__swsetup_r>:
    6ec2:	1141                	addi	sp,sp,-16
    6ec4:	81418793          	addi	a5,gp,-2028 # 20000094 <_impure_ptr>
    6ec8:	c226                	sw	s1,4(sp)
    6eca:	4384                	lw	s1,0(a5)
    6ecc:	c422                	sw	s0,8(sp)
    6ece:	c04a                	sw	s2,0(sp)
    6ed0:	c606                	sw	ra,12(sp)
    6ed2:	892a                	mv	s2,a0
    6ed4:	842e                	mv	s0,a1
    6ed6:	c489                	beqz	s1,6ee0 <__swsetup_r+0x1e>
    6ed8:	4c9c                	lw	a5,24(s1)
    6eda:	e399                	bnez	a5,6ee0 <__swsetup_r+0x1e>
    6edc:	8526                	mv	a0,s1
    6ede:	26a9                	jal	7228 <__sinit>
    6ee0:	00001797          	auipc	a5,0x1
    6ee4:	b3c78793          	addi	a5,a5,-1220 # 7a1c <__sf_fake_stdin>
    6ee8:	02f41c63          	bne	s0,a5,6f20 <__swsetup_r+0x5e>
    6eec:	40c0                	lw	s0,4(s1)
    6eee:	00c41703          	lh	a4,12(s0)
    6ef2:	01071793          	slli	a5,a4,0x10
    6ef6:	83c1                	srli	a5,a5,0x10
    6ef8:	0087f693          	andi	a3,a5,8
    6efc:	eeb5                	bnez	a3,6f78 <__swsetup_r+0xb6>
    6efe:	0107f693          	andi	a3,a5,16
    6f02:	ee9d                	bnez	a3,6f40 <__swsetup_r+0x7e>
    6f04:	47a5                	li	a5,9
    6f06:	00f92023          	sw	a5,0(s2)
    6f0a:	04076713          	ori	a4,a4,64
    6f0e:	00e41623          	sh	a4,12(s0)
    6f12:	557d                	li	a0,-1
    6f14:	40b2                	lw	ra,12(sp)
    6f16:	4422                	lw	s0,8(sp)
    6f18:	4492                	lw	s1,4(sp)
    6f1a:	4902                	lw	s2,0(sp)
    6f1c:	0141                	addi	sp,sp,16
    6f1e:	8082                	ret
    6f20:	00001797          	auipc	a5,0x1
    6f24:	b1c78793          	addi	a5,a5,-1252 # 7a3c <__sf_fake_stdout>
    6f28:	00f41463          	bne	s0,a5,6f30 <__swsetup_r+0x6e>
    6f2c:	4480                	lw	s0,8(s1)
    6f2e:	b7c1                	j	6eee <__swsetup_r+0x2c>
    6f30:	00001797          	auipc	a5,0x1
    6f34:	acc78793          	addi	a5,a5,-1332 # 79fc <__sf_fake_stderr>
    6f38:	faf41be3          	bne	s0,a5,6eee <__swsetup_r+0x2c>
    6f3c:	44c0                	lw	s0,12(s1)
    6f3e:	bf45                	j	6eee <__swsetup_r+0x2c>
    6f40:	8b91                	andi	a5,a5,4
    6f42:	c78d                	beqz	a5,6f6c <__swsetup_r+0xaa>
    6f44:	584c                	lw	a1,52(s0)
    6f46:	c989                	beqz	a1,6f58 <__swsetup_r+0x96>
    6f48:	04440793          	addi	a5,s0,68
    6f4c:	00f58463          	beq	a1,a5,6f54 <__swsetup_r+0x92>
    6f50:	854a                	mv	a0,s2
    6f52:	2b25                	jal	748a <_free_r>
    6f54:	02042a23          	sw	zero,52(s0)
    6f58:	00c45783          	lhu	a5,12(s0)
    6f5c:	00042223          	sw	zero,4(s0)
    6f60:	fdb7f793          	andi	a5,a5,-37
    6f64:	00f41623          	sh	a5,12(s0)
    6f68:	481c                	lw	a5,16(s0)
    6f6a:	c01c                	sw	a5,0(s0)
    6f6c:	00c45783          	lhu	a5,12(s0)
    6f70:	0087e793          	ori	a5,a5,8
    6f74:	00f41623          	sh	a5,12(s0)
    6f78:	481c                	lw	a5,16(s0)
    6f7a:	ef81                	bnez	a5,6f92 <__swsetup_r+0xd0>
    6f7c:	00c45783          	lhu	a5,12(s0)
    6f80:	20000713          	li	a4,512
    6f84:	2807f793          	andi	a5,a5,640
    6f88:	00e78563          	beq	a5,a4,6f92 <__swsetup_r+0xd0>
    6f8c:	85a2                	mv	a1,s0
    6f8e:	854a                	mv	a0,s2
    6f90:	29b9                	jal	73ee <__smakebuf_r>
    6f92:	00c45783          	lhu	a5,12(s0)
    6f96:	0017f713          	andi	a4,a5,1
    6f9a:	c705                	beqz	a4,6fc2 <__swsetup_r+0x100>
    6f9c:	485c                	lw	a5,20(s0)
    6f9e:	00042423          	sw	zero,8(s0)
    6fa2:	40f007b3          	neg	a5,a5
    6fa6:	cc1c                	sw	a5,24(s0)
    6fa8:	481c                	lw	a5,16(s0)
    6faa:	4501                	li	a0,0
    6fac:	f7a5                	bnez	a5,6f14 <__swsetup_r+0x52>
    6fae:	00c41783          	lh	a5,12(s0)
    6fb2:	0807f713          	andi	a4,a5,128
    6fb6:	df39                	beqz	a4,6f14 <__swsetup_r+0x52>
    6fb8:	0407e793          	ori	a5,a5,64
    6fbc:	00f41623          	sh	a5,12(s0)
    6fc0:	bf89                	j	6f12 <__swsetup_r+0x50>
    6fc2:	8b89                	andi	a5,a5,2
    6fc4:	4701                	li	a4,0
    6fc6:	e391                	bnez	a5,6fca <__swsetup_r+0x108>
    6fc8:	4858                	lw	a4,20(s0)
    6fca:	c418                	sw	a4,8(s0)
    6fcc:	bff1                	j	6fa8 <__swsetup_r+0xe6>

00006fce <__sflush_r>:
    6fce:	00c5d783          	lhu	a5,12(a1)
    6fd2:	1101                	addi	sp,sp,-32
    6fd4:	cc22                	sw	s0,24(sp)
    6fd6:	ca26                	sw	s1,20(sp)
    6fd8:	ce06                	sw	ra,28(sp)
    6fda:	c84a                	sw	s2,16(sp)
    6fdc:	c64e                	sw	s3,12(sp)
    6fde:	0087f713          	andi	a4,a5,8
    6fe2:	84aa                	mv	s1,a0
    6fe4:	842e                	mv	s0,a1
    6fe6:	ef71                	bnez	a4,70c2 <__sflush_r+0xf4>
    6fe8:	41d8                	lw	a4,4(a1)
    6fea:	00e04d63          	bgtz	a4,7004 <__sflush_r+0x36>
    6fee:	41b8                	lw	a4,64(a1)
    6ff0:	00e04a63          	bgtz	a4,7004 <__sflush_r+0x36>
    6ff4:	4501                	li	a0,0
    6ff6:	40f2                	lw	ra,28(sp)
    6ff8:	4462                	lw	s0,24(sp)
    6ffa:	44d2                	lw	s1,20(sp)
    6ffc:	4942                	lw	s2,16(sp)
    6ffe:	49b2                	lw	s3,12(sp)
    7000:	6105                	addi	sp,sp,32
    7002:	8082                	ret
    7004:	5458                	lw	a4,44(s0)
    7006:	d77d                	beqz	a4,6ff4 <__sflush_r+0x26>
    7008:	0004a903          	lw	s2,0(s1)
    700c:	01379693          	slli	a3,a5,0x13
    7010:	0004a023          	sw	zero,0(s1)
    7014:	0606dd63          	bgez	a3,708e <__sflush_r+0xc0>
    7018:	4870                	lw	a2,84(s0)
    701a:	00c45783          	lhu	a5,12(s0)
    701e:	8b91                	andi	a5,a5,4
    7020:	c799                	beqz	a5,702e <__sflush_r+0x60>
    7022:	405c                	lw	a5,4(s0)
    7024:	8e1d                	sub	a2,a2,a5
    7026:	585c                	lw	a5,52(s0)
    7028:	c399                	beqz	a5,702e <__sflush_r+0x60>
    702a:	403c                	lw	a5,64(s0)
    702c:	8e1d                	sub	a2,a2,a5
    702e:	545c                	lw	a5,44(s0)
    7030:	500c                	lw	a1,32(s0)
    7032:	4681                	li	a3,0
    7034:	8526                	mv	a0,s1
    7036:	9782                	jalr	a5
    7038:	57fd                	li	a5,-1
    703a:	00c45703          	lhu	a4,12(s0)
    703e:	00f51d63          	bne	a0,a5,7058 <__sflush_r+0x8a>
    7042:	4094                	lw	a3,0(s1)
    7044:	47f5                	li	a5,29
    7046:	06d7e863          	bltu	a5,a3,70b6 <__sflush_r+0xe8>
    704a:	204007b7          	lui	a5,0x20400
    704e:	0785                	addi	a5,a5,1
    7050:	00d7d7b3          	srl	a5,a5,a3
    7054:	8b85                	andi	a5,a5,1
    7056:	c3a5                	beqz	a5,70b6 <__sflush_r+0xe8>
    7058:	481c                	lw	a5,16(s0)
    705a:	00042223          	sw	zero,4(s0)
    705e:	c01c                	sw	a5,0(s0)
    7060:	01371793          	slli	a5,a4,0x13
    7064:	0007d863          	bgez	a5,7074 <__sflush_r+0xa6>
    7068:	57fd                	li	a5,-1
    706a:	00f51463          	bne	a0,a5,7072 <__sflush_r+0xa4>
    706e:	409c                	lw	a5,0(s1)
    7070:	e391                	bnez	a5,7074 <__sflush_r+0xa6>
    7072:	c868                	sw	a0,84(s0)
    7074:	584c                	lw	a1,52(s0)
    7076:	0124a023          	sw	s2,0(s1)
    707a:	ddad                	beqz	a1,6ff4 <__sflush_r+0x26>
    707c:	04440793          	addi	a5,s0,68
    7080:	00f58463          	beq	a1,a5,7088 <__sflush_r+0xba>
    7084:	8526                	mv	a0,s1
    7086:	2111                	jal	748a <_free_r>
    7088:	02042a23          	sw	zero,52(s0)
    708c:	b7a5                	j	6ff4 <__sflush_r+0x26>
    708e:	500c                	lw	a1,32(s0)
    7090:	4601                	li	a2,0
    7092:	4685                	li	a3,1
    7094:	8526                	mv	a0,s1
    7096:	9702                	jalr	a4
    7098:	57fd                	li	a5,-1
    709a:	862a                	mv	a2,a0
    709c:	f6f51fe3          	bne	a0,a5,701a <__sflush_r+0x4c>
    70a0:	409c                	lw	a5,0(s1)
    70a2:	dfa5                	beqz	a5,701a <__sflush_r+0x4c>
    70a4:	4775                	li	a4,29
    70a6:	00e78563          	beq	a5,a4,70b0 <__sflush_r+0xe2>
    70aa:	4759                	li	a4,22
    70ac:	04e79463          	bne	a5,a4,70f4 <__sflush_r+0x126>
    70b0:	0124a023          	sw	s2,0(s1)
    70b4:	b781                	j	6ff4 <__sflush_r+0x26>
    70b6:	04076713          	ori	a4,a4,64
    70ba:	00e41623          	sh	a4,12(s0)
    70be:	557d                	li	a0,-1
    70c0:	bf1d                	j	6ff6 <__sflush_r+0x28>
    70c2:	0105a983          	lw	s3,16(a1)
    70c6:	f20987e3          	beqz	s3,6ff4 <__sflush_r+0x26>
    70ca:	0005a903          	lw	s2,0(a1)
    70ce:	8b8d                	andi	a5,a5,3
    70d0:	0135a023          	sw	s3,0(a1)
    70d4:	41390933          	sub	s2,s2,s3
    70d8:	4701                	li	a4,0
    70da:	e391                	bnez	a5,70de <__sflush_r+0x110>
    70dc:	49d8                	lw	a4,20(a1)
    70de:	c418                	sw	a4,8(s0)
    70e0:	f1205ae3          	blez	s2,6ff4 <__sflush_r+0x26>
    70e4:	541c                	lw	a5,40(s0)
    70e6:	500c                	lw	a1,32(s0)
    70e8:	86ca                	mv	a3,s2
    70ea:	864e                	mv	a2,s3
    70ec:	8526                	mv	a0,s1
    70ee:	9782                	jalr	a5
    70f0:	00a04963          	bgtz	a0,7102 <__sflush_r+0x134>
    70f4:	00c45783          	lhu	a5,12(s0)
    70f8:	0407e793          	ori	a5,a5,64
    70fc:	00f41623          	sh	a5,12(s0)
    7100:	bf7d                	j	70be <__sflush_r+0xf0>
    7102:	99aa                	add	s3,s3,a0
    7104:	40a90933          	sub	s2,s2,a0
    7108:	bfe1                	j	70e0 <__sflush_r+0x112>

0000710a <_fflush_r>:
    710a:	499c                	lw	a5,16(a1)
    710c:	cfb9                	beqz	a5,716a <_fflush_r+0x60>
    710e:	1101                	addi	sp,sp,-32
    7110:	cc22                	sw	s0,24(sp)
    7112:	ce06                	sw	ra,28(sp)
    7114:	842a                	mv	s0,a0
    7116:	c511                	beqz	a0,7122 <_fflush_r+0x18>
    7118:	4d1c                	lw	a5,24(a0)
    711a:	e781                	bnez	a5,7122 <_fflush_r+0x18>
    711c:	c62e                	sw	a1,12(sp)
    711e:	2229                	jal	7228 <__sinit>
    7120:	45b2                	lw	a1,12(sp)
    7122:	00001797          	auipc	a5,0x1
    7126:	8fa78793          	addi	a5,a5,-1798 # 7a1c <__sf_fake_stdin>
    712a:	00f59b63          	bne	a1,a5,7140 <_fflush_r+0x36>
    712e:	404c                	lw	a1,4(s0)
    7130:	00c59783          	lh	a5,12(a1)
    7134:	c795                	beqz	a5,7160 <_fflush_r+0x56>
    7136:	8522                	mv	a0,s0
    7138:	4462                	lw	s0,24(sp)
    713a:	40f2                	lw	ra,28(sp)
    713c:	6105                	addi	sp,sp,32
    713e:	bd41                	j	6fce <__sflush_r>
    7140:	00001797          	auipc	a5,0x1
    7144:	8fc78793          	addi	a5,a5,-1796 # 7a3c <__sf_fake_stdout>
    7148:	00f59463          	bne	a1,a5,7150 <_fflush_r+0x46>
    714c:	440c                	lw	a1,8(s0)
    714e:	b7cd                	j	7130 <_fflush_r+0x26>
    7150:	00001797          	auipc	a5,0x1
    7154:	8ac78793          	addi	a5,a5,-1876 # 79fc <__sf_fake_stderr>
    7158:	fcf59ce3          	bne	a1,a5,7130 <_fflush_r+0x26>
    715c:	444c                	lw	a1,12(s0)
    715e:	bfc9                	j	7130 <_fflush_r+0x26>
    7160:	40f2                	lw	ra,28(sp)
    7162:	4462                	lw	s0,24(sp)
    7164:	4501                	li	a0,0
    7166:	6105                	addi	sp,sp,32
    7168:	8082                	ret
    716a:	4501                	li	a0,0
    716c:	8082                	ret

0000716e <std>:
    716e:	1141                	addi	sp,sp,-16
    7170:	c422                	sw	s0,8(sp)
    7172:	c606                	sw	ra,12(sp)
    7174:	842a                	mv	s0,a0
    7176:	00b51623          	sh	a1,12(a0)
    717a:	00c51723          	sh	a2,14(a0)
    717e:	00052023          	sw	zero,0(a0)
    7182:	00052223          	sw	zero,4(a0)
    7186:	00052423          	sw	zero,8(a0)
    718a:	06052223          	sw	zero,100(a0)
    718e:	00052823          	sw	zero,16(a0)
    7192:	00052a23          	sw	zero,20(a0)
    7196:	00052c23          	sw	zero,24(a0)
    719a:	4621                	li	a2,8
    719c:	4581                	li	a1,0
    719e:	05c50513          	addi	a0,a0,92
    71a2:	85efe0ef          	jal	ra,5200 <memset>
    71a6:	00000797          	auipc	a5,0x0
    71aa:	48078793          	addi	a5,a5,1152 # 7626 <__sread>
    71ae:	d05c                	sw	a5,36(s0)
    71b0:	00000797          	auipc	a5,0x0
    71b4:	4a678793          	addi	a5,a5,1190 # 7656 <__swrite>
    71b8:	d41c                	sw	a5,40(s0)
    71ba:	00000797          	auipc	a5,0x0
    71be:	4ea78793          	addi	a5,a5,1258 # 76a4 <__sseek>
    71c2:	d45c                	sw	a5,44(s0)
    71c4:	00000797          	auipc	a5,0x0
    71c8:	51678793          	addi	a5,a5,1302 # 76da <__sclose>
    71cc:	d000                	sw	s0,32(s0)
    71ce:	d81c                	sw	a5,48(s0)
    71d0:	40b2                	lw	ra,12(sp)
    71d2:	4422                	lw	s0,8(sp)
    71d4:	0141                	addi	sp,sp,16
    71d6:	8082                	ret

000071d8 <_cleanup_r>:
    71d8:	00000597          	auipc	a1,0x0
    71dc:	f3258593          	addi	a1,a1,-206 # 710a <_fflush_r>
    71e0:	a2a9                	j	732a <_fwalk_reent>

000071e2 <__sfmoreglue>:
    71e2:	1141                	addi	sp,sp,-16
    71e4:	c226                	sw	s1,4(sp)
    71e6:	06800613          	li	a2,104
    71ea:	fff58493          	addi	s1,a1,-1
    71ee:	02c484b3          	mul	s1,s1,a2
    71f2:	c04a                	sw	s2,0(sp)
    71f4:	892e                	mv	s2,a1
    71f6:	c422                	sw	s0,8(sp)
    71f8:	c606                	sw	ra,12(sp)
    71fa:	07448593          	addi	a1,s1,116
    71fe:	2e05                	jal	752e <_malloc_r>
    7200:	842a                	mv	s0,a0
    7202:	cd01                	beqz	a0,721a <__sfmoreglue+0x38>
    7204:	00052023          	sw	zero,0(a0)
    7208:	01252223          	sw	s2,4(a0)
    720c:	0531                	addi	a0,a0,12
    720e:	c408                	sw	a0,8(s0)
    7210:	06848613          	addi	a2,s1,104
    7214:	4581                	li	a1,0
    7216:	febfd0ef          	jal	ra,5200 <memset>
    721a:	8522                	mv	a0,s0
    721c:	40b2                	lw	ra,12(sp)
    721e:	4422                	lw	s0,8(sp)
    7220:	4492                	lw	s1,4(sp)
    7222:	4902                	lw	s2,0(sp)
    7224:	0141                	addi	sp,sp,16
    7226:	8082                	ret

00007228 <__sinit>:
    7228:	4d1c                	lw	a5,24(a0)
    722a:	e3ad                	bnez	a5,728c <__sinit+0x64>
    722c:	1141                	addi	sp,sp,-16
    722e:	c606                	sw	ra,12(sp)
    7230:	c422                	sw	s0,8(sp)
    7232:	00000797          	auipc	a5,0x0
    7236:	fa678793          	addi	a5,a5,-90 # 71d8 <_cleanup_r>
    723a:	d51c                	sw	a5,40(a0)
    723c:	81c18793          	addi	a5,gp,-2020 # 2000009c <_global_impure_ptr>
    7240:	439c                	lw	a5,0(a5)
    7242:	04052423          	sw	zero,72(a0)
    7246:	04052623          	sw	zero,76(a0)
    724a:	04052823          	sw	zero,80(a0)
    724e:	00f51463          	bne	a0,a5,7256 <__sinit+0x2e>
    7252:	4785                	li	a5,1
    7254:	cd1c                	sw	a5,24(a0)
    7256:	842a                	mv	s0,a0
    7258:	281d                	jal	728e <__sfp>
    725a:	c048                	sw	a0,4(s0)
    725c:	8522                	mv	a0,s0
    725e:	2805                	jal	728e <__sfp>
    7260:	c408                	sw	a0,8(s0)
    7262:	8522                	mv	a0,s0
    7264:	202d                	jal	728e <__sfp>
    7266:	c448                	sw	a0,12(s0)
    7268:	4048                	lw	a0,4(s0)
    726a:	4601                	li	a2,0
    726c:	4591                	li	a1,4
    726e:	3701                	jal	716e <std>
    7270:	4408                	lw	a0,8(s0)
    7272:	4605                	li	a2,1
    7274:	45a5                	li	a1,9
    7276:	3de5                	jal	716e <std>
    7278:	4448                	lw	a0,12(s0)
    727a:	4609                	li	a2,2
    727c:	45c9                	li	a1,18
    727e:	3dc5                	jal	716e <std>
    7280:	4785                	li	a5,1
    7282:	cc1c                	sw	a5,24(s0)
    7284:	40b2                	lw	ra,12(sp)
    7286:	4422                	lw	s0,8(sp)
    7288:	0141                	addi	sp,sp,16
    728a:	8082                	ret
    728c:	8082                	ret

0000728e <__sfp>:
    728e:	1141                	addi	sp,sp,-16
    7290:	81c18793          	addi	a5,gp,-2020 # 2000009c <_global_impure_ptr>
    7294:	c226                	sw	s1,4(sp)
    7296:	4384                	lw	s1,0(a5)
    7298:	c04a                	sw	s2,0(sp)
    729a:	c606                	sw	ra,12(sp)
    729c:	4c9c                	lw	a5,24(s1)
    729e:	c422                	sw	s0,8(sp)
    72a0:	892a                	mv	s2,a0
    72a2:	e399                	bnez	a5,72a8 <__sfp+0x1a>
    72a4:	8526                	mv	a0,s1
    72a6:	3749                	jal	7228 <__sinit>
    72a8:	04848493          	addi	s1,s1,72
    72ac:	4480                	lw	s0,8(s1)
    72ae:	40dc                	lw	a5,4(s1)
    72b0:	17fd                	addi	a5,a5,-1
    72b2:	0007d663          	bgez	a5,72be <__sfp+0x30>
    72b6:	409c                	lw	a5,0(s1)
    72b8:	cfb9                	beqz	a5,7316 <__sfp+0x88>
    72ba:	4084                	lw	s1,0(s1)
    72bc:	bfc5                	j	72ac <__sfp+0x1e>
    72be:	00c41703          	lh	a4,12(s0)
    72c2:	e739                	bnez	a4,7310 <__sfp+0x82>
    72c4:	77c1                	lui	a5,0xffff0
    72c6:	0785                	addi	a5,a5,1
    72c8:	06042223          	sw	zero,100(s0)
    72cc:	00042023          	sw	zero,0(s0)
    72d0:	00042223          	sw	zero,4(s0)
    72d4:	00042423          	sw	zero,8(s0)
    72d8:	c45c                	sw	a5,12(s0)
    72da:	00042823          	sw	zero,16(s0)
    72de:	00042a23          	sw	zero,20(s0)
    72e2:	00042c23          	sw	zero,24(s0)
    72e6:	4621                	li	a2,8
    72e8:	4581                	li	a1,0
    72ea:	05c40513          	addi	a0,s0,92
    72ee:	f13fd0ef          	jal	ra,5200 <memset>
    72f2:	02042a23          	sw	zero,52(s0)
    72f6:	02042c23          	sw	zero,56(s0)
    72fa:	04042423          	sw	zero,72(s0)
    72fe:	04042623          	sw	zero,76(s0)
    7302:	8522                	mv	a0,s0
    7304:	40b2                	lw	ra,12(sp)
    7306:	4422                	lw	s0,8(sp)
    7308:	4492                	lw	s1,4(sp)
    730a:	4902                	lw	s2,0(sp)
    730c:	0141                	addi	sp,sp,16
    730e:	8082                	ret
    7310:	06840413          	addi	s0,s0,104
    7314:	bf71                	j	72b0 <__sfp+0x22>
    7316:	4591                	li	a1,4
    7318:	854a                	mv	a0,s2
    731a:	35e1                	jal	71e2 <__sfmoreglue>
    731c:	c088                	sw	a0,0(s1)
    731e:	fd51                	bnez	a0,72ba <__sfp+0x2c>
    7320:	47b1                	li	a5,12
    7322:	00f92023          	sw	a5,0(s2)
    7326:	4401                	li	s0,0
    7328:	bfe9                	j	7302 <__sfp+0x74>

0000732a <_fwalk_reent>:
    732a:	7179                	addi	sp,sp,-48
    732c:	d422                	sw	s0,40(sp)
    732e:	d04a                	sw	s2,32(sp)
    7330:	cc52                	sw	s4,24(sp)
    7332:	ca56                	sw	s5,20(sp)
    7334:	c85a                	sw	s6,16(sp)
    7336:	c65e                	sw	s7,12(sp)
    7338:	d606                	sw	ra,44(sp)
    733a:	d226                	sw	s1,36(sp)
    733c:	ce4e                	sw	s3,28(sp)
    733e:	8a2a                	mv	s4,a0
    7340:	8aae                	mv	s5,a1
    7342:	04850413          	addi	s0,a0,72
    7346:	4901                	li	s2,0
    7348:	4b05                	li	s6,1
    734a:	5bfd                	li	s7,-1
    734c:	ec09                	bnez	s0,7366 <_fwalk_reent+0x3c>
    734e:	50b2                	lw	ra,44(sp)
    7350:	5422                	lw	s0,40(sp)
    7352:	854a                	mv	a0,s2
    7354:	5492                	lw	s1,36(sp)
    7356:	5902                	lw	s2,32(sp)
    7358:	49f2                	lw	s3,28(sp)
    735a:	4a62                	lw	s4,24(sp)
    735c:	4ad2                	lw	s5,20(sp)
    735e:	4b42                	lw	s6,16(sp)
    7360:	4bb2                	lw	s7,12(sp)
    7362:	6145                	addi	sp,sp,48
    7364:	8082                	ret
    7366:	4404                	lw	s1,8(s0)
    7368:	00442983          	lw	s3,4(s0)
    736c:	19fd                	addi	s3,s3,-1
    736e:	0009d463          	bgez	s3,7376 <_fwalk_reent+0x4c>
    7372:	4000                	lw	s0,0(s0)
    7374:	bfe1                	j	734c <_fwalk_reent+0x22>
    7376:	00c4d783          	lhu	a5,12(s1)
    737a:	00fb7b63          	bgeu	s6,a5,7390 <_fwalk_reent+0x66>
    737e:	00e49783          	lh	a5,14(s1)
    7382:	01778763          	beq	a5,s7,7390 <_fwalk_reent+0x66>
    7386:	85a6                	mv	a1,s1
    7388:	8552                	mv	a0,s4
    738a:	9a82                	jalr	s5
    738c:	00a96933          	or	s2,s2,a0
    7390:	06848493          	addi	s1,s1,104
    7394:	bfe1                	j	736c <_fwalk_reent+0x42>

00007396 <__swhatbuf_r>:
    7396:	7119                	addi	sp,sp,-128
    7398:	daa6                	sw	s1,116(sp)
    739a:	84ae                	mv	s1,a1
    739c:	00e59583          	lh	a1,14(a1)
    73a0:	dca2                	sw	s0,120(sp)
    73a2:	de86                	sw	ra,124(sp)
    73a4:	8432                	mv	s0,a2
    73a6:	0005dc63          	bgez	a1,73be <__swhatbuf_r+0x28>
    73aa:	00c4d783          	lhu	a5,12(s1)
    73ae:	0006a023          	sw	zero,0(a3)
    73b2:	0807f793          	andi	a5,a5,128
    73b6:	e39d                	bnez	a5,73dc <__swhatbuf_r+0x46>
    73b8:	40000793          	li	a5,1024
    73bc:	a015                	j	73e0 <__swhatbuf_r+0x4a>
    73be:	0830                	addi	a2,sp,24
    73c0:	c636                	sw	a3,12(sp)
    73c2:	2e95                	jal	7736 <_fstat_r>
    73c4:	46b2                	lw	a3,12(sp)
    73c6:	fe0542e3          	bltz	a0,73aa <__swhatbuf_r+0x14>
    73ca:	4772                	lw	a4,28(sp)
    73cc:	67bd                	lui	a5,0xf
    73ce:	8ff9                	and	a5,a5,a4
    73d0:	7779                	lui	a4,0xffffe
    73d2:	97ba                	add	a5,a5,a4
    73d4:	0017b793          	seqz	a5,a5
    73d8:	c29c                	sw	a5,0(a3)
    73da:	bff9                	j	73b8 <__swhatbuf_r+0x22>
    73dc:	04000793          	li	a5,64
    73e0:	c01c                	sw	a5,0(s0)
    73e2:	50f6                	lw	ra,124(sp)
    73e4:	5466                	lw	s0,120(sp)
    73e6:	54d6                	lw	s1,116(sp)
    73e8:	4501                	li	a0,0
    73ea:	6109                	addi	sp,sp,128
    73ec:	8082                	ret

000073ee <__smakebuf_r>:
    73ee:	00c5d783          	lhu	a5,12(a1)
    73f2:	1101                	addi	sp,sp,-32
    73f4:	cc22                	sw	s0,24(sp)
    73f6:	ce06                	sw	ra,28(sp)
    73f8:	ca26                	sw	s1,20(sp)
    73fa:	c84a                	sw	s2,16(sp)
    73fc:	8b89                	andi	a5,a5,2
    73fe:	842e                	mv	s0,a1
    7400:	cf89                	beqz	a5,741a <__smakebuf_r+0x2c>
    7402:	04740793          	addi	a5,s0,71
    7406:	c01c                	sw	a5,0(s0)
    7408:	c81c                	sw	a5,16(s0)
    740a:	4785                	li	a5,1
    740c:	c85c                	sw	a5,20(s0)
    740e:	40f2                	lw	ra,28(sp)
    7410:	4462                	lw	s0,24(sp)
    7412:	44d2                	lw	s1,20(sp)
    7414:	4942                	lw	s2,16(sp)
    7416:	6105                	addi	sp,sp,32
    7418:	8082                	ret
    741a:	0074                	addi	a3,sp,12
    741c:	0030                	addi	a2,sp,8
    741e:	84aa                	mv	s1,a0
    7420:	3f9d                	jal	7396 <__swhatbuf_r>
    7422:	45a2                	lw	a1,8(sp)
    7424:	892a                	mv	s2,a0
    7426:	8526                	mv	a0,s1
    7428:	2219                	jal	752e <_malloc_r>
    742a:	ed01                	bnez	a0,7442 <__smakebuf_r+0x54>
    742c:	00c41783          	lh	a5,12(s0)
    7430:	2007f713          	andi	a4,a5,512
    7434:	ff69                	bnez	a4,740e <__smakebuf_r+0x20>
    7436:	9bf1                	andi	a5,a5,-4
    7438:	0027e793          	ori	a5,a5,2
    743c:	00f41623          	sh	a5,12(s0)
    7440:	b7c9                	j	7402 <__smakebuf_r+0x14>
    7442:	00000797          	auipc	a5,0x0
    7446:	d9678793          	addi	a5,a5,-618 # 71d8 <_cleanup_r>
    744a:	d49c                	sw	a5,40(s1)
    744c:	00c45783          	lhu	a5,12(s0)
    7450:	c008                	sw	a0,0(s0)
    7452:	c808                	sw	a0,16(s0)
    7454:	0807e793          	ori	a5,a5,128
    7458:	00f41623          	sh	a5,12(s0)
    745c:	47a2                	lw	a5,8(sp)
    745e:	c85c                	sw	a5,20(s0)
    7460:	47b2                	lw	a5,12(sp)
    7462:	cf89                	beqz	a5,747c <__smakebuf_r+0x8e>
    7464:	00e41583          	lh	a1,14(s0)
    7468:	8526                	mv	a0,s1
    746a:	2cdd                	jal	7760 <_isatty_r>
    746c:	c901                	beqz	a0,747c <__smakebuf_r+0x8e>
    746e:	00c45783          	lhu	a5,12(s0)
    7472:	9bf1                	andi	a5,a5,-4
    7474:	0017e793          	ori	a5,a5,1
    7478:	00f41623          	sh	a5,12(s0)
    747c:	00c45783          	lhu	a5,12(s0)
    7480:	00f96933          	or	s2,s2,a5
    7484:	01241623          	sh	s2,12(s0)
    7488:	b759                	j	740e <__smakebuf_r+0x20>

0000748a <_free_r>:
    748a:	c1cd                	beqz	a1,752c <_free_r+0xa2>
    748c:	ffc5a783          	lw	a5,-4(a1)
    7490:	1141                	addi	sp,sp,-16
    7492:	c422                	sw	s0,8(sp)
    7494:	c606                	sw	ra,12(sp)
    7496:	c226                	sw	s1,4(sp)
    7498:	ffc58413          	addi	s0,a1,-4
    749c:	0007d363          	bgez	a5,74a2 <_free_r+0x18>
    74a0:	943e                	add	s0,s0,a5
    74a2:	84aa                	mv	s1,a0
    74a4:	2e01                	jal	77b4 <__malloc_lock>
    74a6:	83818793          	addi	a5,gp,-1992 # 200000b8 <__malloc_free_list>
    74aa:	439c                	lw	a5,0(a5)
    74ac:	eb99                	bnez	a5,74c2 <_free_r+0x38>
    74ae:	00042223          	sw	zero,4(s0)
    74b2:	8281ac23          	sw	s0,-1992(gp) # 200000b8 <__malloc_free_list>
    74b6:	4422                	lw	s0,8(sp)
    74b8:	40b2                	lw	ra,12(sp)
    74ba:	8526                	mv	a0,s1
    74bc:	4492                	lw	s1,4(sp)
    74be:	0141                	addi	sp,sp,16
    74c0:	acdd                	j	77b6 <__malloc_unlock>
    74c2:	00f47e63          	bgeu	s0,a5,74de <_free_r+0x54>
    74c6:	4014                	lw	a3,0(s0)
    74c8:	00d40733          	add	a4,s0,a3
    74cc:	00e79663          	bne	a5,a4,74d8 <_free_r+0x4e>
    74d0:	4398                	lw	a4,0(a5)
    74d2:	43dc                	lw	a5,4(a5)
    74d4:	9736                	add	a4,a4,a3
    74d6:	c018                	sw	a4,0(s0)
    74d8:	c05c                	sw	a5,4(s0)
    74da:	bfe1                	j	74b2 <_free_r+0x28>
    74dc:	87ba                	mv	a5,a4
    74de:	43d8                	lw	a4,4(a5)
    74e0:	c319                	beqz	a4,74e6 <_free_r+0x5c>
    74e2:	fee47de3          	bgeu	s0,a4,74dc <_free_r+0x52>
    74e6:	4394                	lw	a3,0(a5)
    74e8:	00d78633          	add	a2,a5,a3
    74ec:	00861f63          	bne	a2,s0,750a <_free_r+0x80>
    74f0:	4010                	lw	a2,0(s0)
    74f2:	96b2                	add	a3,a3,a2
    74f4:	c394                	sw	a3,0(a5)
    74f6:	00d78633          	add	a2,a5,a3
    74fa:	fac71ee3          	bne	a4,a2,74b6 <_free_r+0x2c>
    74fe:	4310                	lw	a2,0(a4)
    7500:	4358                	lw	a4,4(a4)
    7502:	96b2                	add	a3,a3,a2
    7504:	c394                	sw	a3,0(a5)
    7506:	c3d8                	sw	a4,4(a5)
    7508:	b77d                	j	74b6 <_free_r+0x2c>
    750a:	00c47563          	bgeu	s0,a2,7514 <_free_r+0x8a>
    750e:	47b1                	li	a5,12
    7510:	c09c                	sw	a5,0(s1)
    7512:	b755                	j	74b6 <_free_r+0x2c>
    7514:	4010                	lw	a2,0(s0)
    7516:	00c406b3          	add	a3,s0,a2
    751a:	00d71663          	bne	a4,a3,7526 <_free_r+0x9c>
    751e:	4314                	lw	a3,0(a4)
    7520:	4358                	lw	a4,4(a4)
    7522:	96b2                	add	a3,a3,a2
    7524:	c014                	sw	a3,0(s0)
    7526:	c058                	sw	a4,4(s0)
    7528:	c3c0                	sw	s0,4(a5)
    752a:	b771                	j	74b6 <_free_r+0x2c>
    752c:	8082                	ret

0000752e <_malloc_r>:
    752e:	1101                	addi	sp,sp,-32
    7530:	ca26                	sw	s1,20(sp)
    7532:	00358493          	addi	s1,a1,3
    7536:	98f1                	andi	s1,s1,-4
    7538:	ce06                	sw	ra,28(sp)
    753a:	cc22                	sw	s0,24(sp)
    753c:	c84a                	sw	s2,16(sp)
    753e:	c64e                	sw	s3,12(sp)
    7540:	04a1                	addi	s1,s1,8
    7542:	47b1                	li	a5,12
    7544:	04f4f163          	bgeu	s1,a5,7586 <_malloc_r+0x58>
    7548:	44b1                	li	s1,12
    754a:	04b4e063          	bltu	s1,a1,758a <_malloc_r+0x5c>
    754e:	892a                	mv	s2,a0
    7550:	2495                	jal	77b4 <__malloc_lock>
    7552:	83818793          	addi	a5,gp,-1992 # 200000b8 <__malloc_free_list>
    7556:	4398                	lw	a4,0(a5)
    7558:	843a                	mv	s0,a4
    755a:	e031                	bnez	s0,759e <_malloc_r+0x70>
    755c:	83c18793          	addi	a5,gp,-1988 # 200000bc <__malloc_sbrk_start>
    7560:	439c                	lw	a5,0(a5)
    7562:	e791                	bnez	a5,756e <_malloc_r+0x40>
    7564:	4581                	li	a1,0
    7566:	854a                	mv	a0,s2
    7568:	2851                	jal	75fc <_sbrk_r>
    756a:	82a1ae23          	sw	a0,-1988(gp) # 200000bc <__malloc_sbrk_start>
    756e:	85a6                	mv	a1,s1
    7570:	854a                	mv	a0,s2
    7572:	2069                	jal	75fc <_sbrk_r>
    7574:	59fd                	li	s3,-1
    7576:	07351763          	bne	a0,s3,75e4 <_malloc_r+0xb6>
    757a:	47b1                	li	a5,12
    757c:	00f92023          	sw	a5,0(s2)
    7580:	854a                	mv	a0,s2
    7582:	2c15                	jal	77b6 <__malloc_unlock>
    7584:	a029                	j	758e <_malloc_r+0x60>
    7586:	fc04d2e3          	bgez	s1,754a <_malloc_r+0x1c>
    758a:	47b1                	li	a5,12
    758c:	c11c                	sw	a5,0(a0)
    758e:	4501                	li	a0,0
    7590:	40f2                	lw	ra,28(sp)
    7592:	4462                	lw	s0,24(sp)
    7594:	44d2                	lw	s1,20(sp)
    7596:	4942                	lw	s2,16(sp)
    7598:	49b2                	lw	s3,12(sp)
    759a:	6105                	addi	sp,sp,32
    759c:	8082                	ret
    759e:	401c                	lw	a5,0(s0)
    75a0:	8f85                	sub	a5,a5,s1
    75a2:	0207ce63          	bltz	a5,75de <_malloc_r+0xb0>
    75a6:	46ad                	li	a3,11
    75a8:	00f6f663          	bgeu	a3,a5,75b4 <_malloc_r+0x86>
    75ac:	c01c                	sw	a5,0(s0)
    75ae:	943e                	add	s0,s0,a5
    75b0:	c004                	sw	s1,0(s0)
    75b2:	a031                	j	75be <_malloc_r+0x90>
    75b4:	405c                	lw	a5,4(s0)
    75b6:	02871263          	bne	a4,s0,75da <_malloc_r+0xac>
    75ba:	82f1ac23          	sw	a5,-1992(gp) # 200000b8 <__malloc_free_list>
    75be:	854a                	mv	a0,s2
    75c0:	2add                	jal	77b6 <__malloc_unlock>
    75c2:	00b40513          	addi	a0,s0,11
    75c6:	00440793          	addi	a5,s0,4
    75ca:	9961                	andi	a0,a0,-8
    75cc:	40f50733          	sub	a4,a0,a5
    75d0:	d361                	beqz	a4,7590 <_malloc_r+0x62>
    75d2:	943a                	add	s0,s0,a4
    75d4:	8f89                	sub	a5,a5,a0
    75d6:	c01c                	sw	a5,0(s0)
    75d8:	bf65                	j	7590 <_malloc_r+0x62>
    75da:	c35c                	sw	a5,4(a4)
    75dc:	b7cd                	j	75be <_malloc_r+0x90>
    75de:	8722                	mv	a4,s0
    75e0:	4040                	lw	s0,4(s0)
    75e2:	bfa5                	j	755a <_malloc_r+0x2c>
    75e4:	00350413          	addi	s0,a0,3
    75e8:	9871                	andi	s0,s0,-4
    75ea:	fc8503e3          	beq	a0,s0,75b0 <_malloc_r+0x82>
    75ee:	40a405b3          	sub	a1,s0,a0
    75f2:	854a                	mv	a0,s2
    75f4:	2021                	jal	75fc <_sbrk_r>
    75f6:	fb351de3          	bne	a0,s3,75b0 <_malloc_r+0x82>
    75fa:	b741                	j	757a <_malloc_r+0x4c>

000075fc <_sbrk_r>:
    75fc:	1141                	addi	sp,sp,-16
    75fe:	c422                	sw	s0,8(sp)
    7600:	842a                	mv	s0,a0
    7602:	852e                	mv	a0,a1
    7604:	ca01a623          	sw	zero,-852(gp) # 2000052c <errno>
    7608:	c606                	sw	ra,12(sp)
    760a:	e38ff0ef          	jal	ra,6c42 <_sbrk>
    760e:	57fd                	li	a5,-1
    7610:	00f51763          	bne	a0,a5,761e <_sbrk_r+0x22>
    7614:	cac18793          	addi	a5,gp,-852 # 2000052c <errno>
    7618:	439c                	lw	a5,0(a5)
    761a:	c391                	beqz	a5,761e <_sbrk_r+0x22>
    761c:	c01c                	sw	a5,0(s0)
    761e:	40b2                	lw	ra,12(sp)
    7620:	4422                	lw	s0,8(sp)
    7622:	0141                	addi	sp,sp,16
    7624:	8082                	ret

00007626 <__sread>:
    7626:	1141                	addi	sp,sp,-16
    7628:	c422                	sw	s0,8(sp)
    762a:	842e                	mv	s0,a1
    762c:	00e59583          	lh	a1,14(a1)
    7630:	c606                	sw	ra,12(sp)
    7632:	2259                	jal	77b8 <_read_r>
    7634:	00054963          	bltz	a0,7646 <__sread+0x20>
    7638:	487c                	lw	a5,84(s0)
    763a:	97aa                	add	a5,a5,a0
    763c:	c87c                	sw	a5,84(s0)
    763e:	40b2                	lw	ra,12(sp)
    7640:	4422                	lw	s0,8(sp)
    7642:	0141                	addi	sp,sp,16
    7644:	8082                	ret
    7646:	00c45783          	lhu	a5,12(s0)
    764a:	777d                	lui	a4,0xfffff
    764c:	177d                	addi	a4,a4,-1
    764e:	8ff9                	and	a5,a5,a4
    7650:	00f41623          	sh	a5,12(s0)
    7654:	b7ed                	j	763e <__sread+0x18>

00007656 <__swrite>:
    7656:	00c5d783          	lhu	a5,12(a1)
    765a:	1101                	addi	sp,sp,-32
    765c:	cc22                	sw	s0,24(sp)
    765e:	ca26                	sw	s1,20(sp)
    7660:	c84a                	sw	s2,16(sp)
    7662:	c64e                	sw	s3,12(sp)
    7664:	ce06                	sw	ra,28(sp)
    7666:	1007f793          	andi	a5,a5,256
    766a:	84aa                	mv	s1,a0
    766c:	842e                	mv	s0,a1
    766e:	8932                	mv	s2,a2
    7670:	89b6                	mv	s3,a3
    7672:	c791                	beqz	a5,767e <__swrite+0x28>
    7674:	00e59583          	lh	a1,14(a1)
    7678:	4689                	li	a3,2
    767a:	4601                	li	a2,0
    767c:	2231                	jal	7788 <_lseek_r>
    767e:	00c45783          	lhu	a5,12(s0)
    7682:	777d                	lui	a4,0xfffff
    7684:	177d                	addi	a4,a4,-1
    7686:	8ff9                	and	a5,a5,a4
    7688:	00f41623          	sh	a5,12(s0)
    768c:	00e41583          	lh	a1,14(s0)
    7690:	4462                	lw	s0,24(sp)
    7692:	40f2                	lw	ra,28(sp)
    7694:	86ce                	mv	a3,s3
    7696:	864a                	mv	a2,s2
    7698:	49b2                	lw	s3,12(sp)
    769a:	4942                	lw	s2,16(sp)
    769c:	8526                	mv	a0,s1
    769e:	44d2                	lw	s1,20(sp)
    76a0:	6105                	addi	sp,sp,32
    76a2:	a83d                	j	76e0 <_write_r>

000076a4 <__sseek>:
    76a4:	1141                	addi	sp,sp,-16
    76a6:	c422                	sw	s0,8(sp)
    76a8:	842e                	mv	s0,a1
    76aa:	00e59583          	lh	a1,14(a1)
    76ae:	c606                	sw	ra,12(sp)
    76b0:	28e1                	jal	7788 <_lseek_r>
    76b2:	57fd                	li	a5,-1
    76b4:	00c45703          	lhu	a4,12(s0)
    76b8:	00f51b63          	bne	a0,a5,76ce <__sseek+0x2a>
    76bc:	77fd                	lui	a5,0xfffff
    76be:	17fd                	addi	a5,a5,-1
    76c0:	8ff9                	and	a5,a5,a4
    76c2:	00f41623          	sh	a5,12(s0)
    76c6:	40b2                	lw	ra,12(sp)
    76c8:	4422                	lw	s0,8(sp)
    76ca:	0141                	addi	sp,sp,16
    76cc:	8082                	ret
    76ce:	6785                	lui	a5,0x1
    76d0:	8fd9                	or	a5,a5,a4
    76d2:	00f41623          	sh	a5,12(s0)
    76d6:	c868                	sw	a0,84(s0)
    76d8:	b7fd                	j	76c6 <__sseek+0x22>

000076da <__sclose>:
    76da:	00e59583          	lh	a1,14(a1)
    76de:	a805                	j	770e <_close_r>

000076e0 <_write_r>:
    76e0:	1141                	addi	sp,sp,-16
    76e2:	c422                	sw	s0,8(sp)
    76e4:	842a                	mv	s0,a0
    76e6:	852e                	mv	a0,a1
    76e8:	85b2                	mv	a1,a2
    76ea:	8636                	mv	a2,a3
    76ec:	ca01a623          	sw	zero,-852(gp) # 2000052c <errno>
    76f0:	c606                	sw	ra,12(sp)
    76f2:	d04ff0ef          	jal	ra,6bf6 <_write>
    76f6:	57fd                	li	a5,-1
    76f8:	00f51763          	bne	a0,a5,7706 <_write_r+0x26>
    76fc:	cac18793          	addi	a5,gp,-852 # 2000052c <errno>
    7700:	439c                	lw	a5,0(a5)
    7702:	c391                	beqz	a5,7706 <_write_r+0x26>
    7704:	c01c                	sw	a5,0(s0)
    7706:	40b2                	lw	ra,12(sp)
    7708:	4422                	lw	s0,8(sp)
    770a:	0141                	addi	sp,sp,16
    770c:	8082                	ret

0000770e <_close_r>:
    770e:	1141                	addi	sp,sp,-16
    7710:	c422                	sw	s0,8(sp)
    7712:	842a                	mv	s0,a0
    7714:	852e                	mv	a0,a1
    7716:	ca01a623          	sw	zero,-852(gp) # 2000052c <errno>
    771a:	c606                	sw	ra,12(sp)
    771c:	20e1                	jal	77e4 <_close>
    771e:	57fd                	li	a5,-1
    7720:	00f51763          	bne	a0,a5,772e <_close_r+0x20>
    7724:	cac18793          	addi	a5,gp,-852 # 2000052c <errno>
    7728:	439c                	lw	a5,0(a5)
    772a:	c391                	beqz	a5,772e <_close_r+0x20>
    772c:	c01c                	sw	a5,0(s0)
    772e:	40b2                	lw	ra,12(sp)
    7730:	4422                	lw	s0,8(sp)
    7732:	0141                	addi	sp,sp,16
    7734:	8082                	ret

00007736 <_fstat_r>:
    7736:	1141                	addi	sp,sp,-16
    7738:	c422                	sw	s0,8(sp)
    773a:	842a                	mv	s0,a0
    773c:	852e                	mv	a0,a1
    773e:	85b2                	mv	a1,a2
    7740:	ca01a623          	sw	zero,-852(gp) # 2000052c <errno>
    7744:	c606                	sw	ra,12(sp)
    7746:	206d                	jal	77f0 <_fstat>
    7748:	57fd                	li	a5,-1
    774a:	00f51763          	bne	a0,a5,7758 <_fstat_r+0x22>
    774e:	cac18793          	addi	a5,gp,-852 # 2000052c <errno>
    7752:	439c                	lw	a5,0(a5)
    7754:	c391                	beqz	a5,7758 <_fstat_r+0x22>
    7756:	c01c                	sw	a5,0(s0)
    7758:	40b2                	lw	ra,12(sp)
    775a:	4422                	lw	s0,8(sp)
    775c:	0141                	addi	sp,sp,16
    775e:	8082                	ret

00007760 <_isatty_r>:
    7760:	1141                	addi	sp,sp,-16
    7762:	c422                	sw	s0,8(sp)
    7764:	842a                	mv	s0,a0
    7766:	852e                	mv	a0,a1
    7768:	ca01a623          	sw	zero,-852(gp) # 2000052c <errno>
    776c:	c606                	sw	ra,12(sp)
    776e:	2079                	jal	77fc <_isatty>
    7770:	57fd                	li	a5,-1
    7772:	00f51763          	bne	a0,a5,7780 <_isatty_r+0x20>
    7776:	cac18793          	addi	a5,gp,-852 # 2000052c <errno>
    777a:	439c                	lw	a5,0(a5)
    777c:	c391                	beqz	a5,7780 <_isatty_r+0x20>
    777e:	c01c                	sw	a5,0(s0)
    7780:	40b2                	lw	ra,12(sp)
    7782:	4422                	lw	s0,8(sp)
    7784:	0141                	addi	sp,sp,16
    7786:	8082                	ret

00007788 <_lseek_r>:
    7788:	1141                	addi	sp,sp,-16
    778a:	c422                	sw	s0,8(sp)
    778c:	842a                	mv	s0,a0
    778e:	852e                	mv	a0,a1
    7790:	85b2                	mv	a1,a2
    7792:	8636                	mv	a2,a3
    7794:	ca01a623          	sw	zero,-852(gp) # 2000052c <errno>
    7798:	c606                	sw	ra,12(sp)
    779a:	20bd                	jal	7808 <_lseek>
    779c:	57fd                	li	a5,-1
    779e:	00f51763          	bne	a0,a5,77ac <_lseek_r+0x24>
    77a2:	cac18793          	addi	a5,gp,-852 # 2000052c <errno>
    77a6:	439c                	lw	a5,0(a5)
    77a8:	c391                	beqz	a5,77ac <_lseek_r+0x24>
    77aa:	c01c                	sw	a5,0(s0)
    77ac:	40b2                	lw	ra,12(sp)
    77ae:	4422                	lw	s0,8(sp)
    77b0:	0141                	addi	sp,sp,16
    77b2:	8082                	ret

000077b4 <__malloc_lock>:
    77b4:	8082                	ret

000077b6 <__malloc_unlock>:
    77b6:	8082                	ret

000077b8 <_read_r>:
    77b8:	1141                	addi	sp,sp,-16
    77ba:	c422                	sw	s0,8(sp)
    77bc:	842a                	mv	s0,a0
    77be:	852e                	mv	a0,a1
    77c0:	85b2                	mv	a1,a2
    77c2:	8636                	mv	a2,a3
    77c4:	ca01a623          	sw	zero,-852(gp) # 2000052c <errno>
    77c8:	c606                	sw	ra,12(sp)
    77ca:	20a9                	jal	7814 <_read>
    77cc:	57fd                	li	a5,-1
    77ce:	00f51763          	bne	a0,a5,77dc <_read_r+0x24>
    77d2:	cac18793          	addi	a5,gp,-852 # 2000052c <errno>
    77d6:	439c                	lw	a5,0(a5)
    77d8:	c391                	beqz	a5,77dc <_read_r+0x24>
    77da:	c01c                	sw	a5,0(s0)
    77dc:	40b2                	lw	ra,12(sp)
    77de:	4422                	lw	s0,8(sp)
    77e0:	0141                	addi	sp,sp,16
    77e2:	8082                	ret

000077e4 <_close>:
    77e4:	05800793          	li	a5,88
    77e8:	caf1a623          	sw	a5,-852(gp) # 2000052c <errno>
    77ec:	557d                	li	a0,-1
    77ee:	8082                	ret

000077f0 <_fstat>:
    77f0:	05800793          	li	a5,88
    77f4:	caf1a623          	sw	a5,-852(gp) # 2000052c <errno>
    77f8:	557d                	li	a0,-1
    77fa:	8082                	ret

000077fc <_isatty>:
    77fc:	05800793          	li	a5,88
    7800:	caf1a623          	sw	a5,-852(gp) # 2000052c <errno>
    7804:	4501                	li	a0,0
    7806:	8082                	ret

00007808 <_lseek>:
    7808:	05800793          	li	a5,88
    780c:	caf1a623          	sw	a5,-852(gp) # 2000052c <errno>
    7810:	557d                	li	a0,-1
    7812:	8082                	ret

00007814 <_read>:
    7814:	05800793          	li	a5,88
    7818:	caf1a623          	sw	a5,-852(gp) # 2000052c <errno>
    781c:	557d                	li	a0,-1
    781e:	8082                	ret
    7820:	5796                	lw	a5,100(sp)
    7822:	0000                	unimp
    7824:	57be                	lw	a5,236(sp)
    7826:	0000                	unimp
    7828:	59d2                	lw	s3,52(sp)
    782a:	0000                	unimp
    782c:	59d2                	lw	s3,52(sp)
    782e:	0000                	unimp
    7830:	59d2                	lw	s3,52(sp)
    7832:	0000                	unimp
    7834:	59d2                	lw	s3,52(sp)
    7836:	0000                	unimp
    7838:	59d2                	lw	s3,52(sp)
    783a:	0000                	unimp
    783c:	570e                	lw	a4,224(sp)
    783e:	0000                	unimp
    7840:	56fa                	lw	a3,188(sp)
    7842:	0000                	unimp
    7844:	5766                	lw	a4,120(sp)
    7846:	0000                	unimp
    7848:	5a9e                	lw	s5,228(sp)
    784a:	0000                	unimp
    784c:	59a6                	lw	s3,104(sp)
    784e:	0000                	unimp
    7850:	59d2                	lw	s3,52(sp)
    7852:	0000                	unimp
    7854:	5a1a                	lw	s4,164(sp)
    7856:	0000                	unimp
    7858:	59d2                	lw	s3,52(sp)
    785a:	0000                	unimp
    785c:	596c                	lw	a1,116(a0)
    785e:	0000                	unimp
    7860:	57fa                	lw	a5,188(sp)
    7862:	0000                	unimp
    7864:	59d2                	lw	s3,52(sp)
    7866:	0000                	unimp
    7868:	597a                	lw	s2,188(sp)
    786a:	0000                	unimp
    786c:	5992                	lw	s3,36(sp)
    786e:	0000                	unimp
    7870:	5a98                	lw	a4,48(a3)
    7872:	0000                	unimp
    7874:	570e                	lw	a4,224(sp)
    7876:	0000                	unimp
    7878:	5355                	li	t1,-11
    787a:	4842                	lw	a6,16(sp)
    787c:	49482053          	0x49482053
    7880:	2044                	fld	fs1,128(s0)
    7882:	72616853          	0x72616853
    7886:	3870                	fld	fa2,240(s0)
    7888:	6946204b          	fnmsub.s	ft0,fa2,fs4,fa3,rdn
    788c:	6d72                	flw	fs10,28(sp)
    788e:	65726177          	0x65726177
    7892:	000d                	c.nop	3
    7894:	5320424b          	fnmsub.d	ft4,ft0,fs2,fa0,rmm
    7898:	206e6163          	bltu	t3,t1,7a9a <_data_lma+0x3e>
    789c:	6e49                	lui	t3,0x12
    789e:	7469                	lui	s0,0xffffa
    78a0:	4f20                	lw	s0,88(a4)
    78a2:	000d214b          	fnmsub.s	ft2,fs10,ft0,ft0,rdn
    78a6:	0000                	unimp
    78a8:	454c                	lw	a1,12(a0)
    78aa:	2044                	fld	fs1,128(s0)
    78ac:	6e49                	lui	t3,0x12
    78ae:	7469                	lui	s0,0xffffa
    78b0:	4f20                	lw	s0,88(a4)
    78b2:	000d214b          	fnmsub.s	ft2,fs10,ft0,ft0,rdn
    78b6:	0000                	unimp
    78b8:	4954                	lw	a3,20(a0)
    78ba:	334d                	jal	765c <__swrite+0x6>
    78bc:	4920                	lw	s0,80(a0)
    78be:	696e                	flw	fs2,216(sp)
    78c0:	2074                	fld	fa3,192(s0)
    78c2:	0d214b4f          	0xd214b4f
    78c6:	0000                	unimp
    78c8:	65656c53          	0x65656c53
    78cc:	0d70                	addi	a2,sp,668
    78ce:	0000                	unimp
    78d0:	656b6157          	0x656b6157
    78d4:	000d                	c.nop	3
	...

000078d8 <KeyRepDesc>:
    78d8:	0105 0609 01a1 0705 e019 e729 0015 0125     ..........)...%.
    78e8:	0175 0895 0281 0019 0729 0895 0281 0805     u.......).......
    78f8:	0119 0529 0015 0125 0175 0595 0291 0375     ..)...%.u.....u.
    7908:	0195 0191 00c0 0000                         ........

00007910 <MediaRepDesc>:
    7910:	0c05 0109 01a1 0015 0125 b509 b609 b709     ........%.......
    7920:	cd09 e209 e509 e709 e909 ea09 520a 0a01     .............R..
    7930:	0153 540a 0a01 0155 830a 0a01 018a 920a     S..T..U.........
    7940:	0a01 0194 210a 0a02 0223 240a 0a02 0225     .....!..#..$..%.
    7950:	260a 0a02 0227 2a0a 7502 9501 8118 c002     .&..'..*.u......

00007960 <MyCfgDescr>:
    7960:	0209 003b 0102 a000 0932 0004 0100 0103     ..;.....2.......
    7970:	0001 2109 0111 0100 3522 0700 8105 0203     ...!...."5......
    7980:	0100 0409 0001 0301 0000 0900 1121 0001     ............!...
    7990:	2201 0050 0507 0382 0008 000a               ."P.........

0000799c <MyDevDescr>:
    799c:	0112 0200 0000 4000 534b 10a0 0100 0201     .......@KS......
    79ac:	0103 0000                                   ....

000079b0 <MyManuInfo>:
    79b0:	0312 0053 0068 0061 0072 0070 0044 0045     ..S.h.a.r.p.D.E.
    79c0:	0056 0000                                   V...

000079c4 <MyProdInfo>:
    79c4:	0314 0053 0068 0061 0072 0070 0038 004b     ..S.h.a.r.p.8.K.
    79d4:	0036 0030                                   6.0.

000079d8 <MyQuaDesc>:
    79d8:	060a 0200 0000 4000 0000 0000               .......@....

000079e4 <MySerNumInfo>:
    79e4:	0316 0053 0038 004b 0036 0030 0045 0030     ..S.8.K.6.0.E.0.
    79f4:	0030 0030 0030 0000                         0.0.0...

000079fc <__sf_fake_stderr>:
	...

00007a1c <__sf_fake_stdin>:
	...

00007a3c <__sf_fake_stdout>:
	...
